
Solder_station_v1.elf:     file format elf32-avr

Sections:
Idx Name          Size      VMA       LMA       File off  Algn
  0 .data         00000086  00800100  00006c64  00006d18  2**0
                  CONTENTS, ALLOC, LOAD, DATA
  1 .text         00006c64  00000000  00000000  000000b4  2**1
                  CONTENTS, ALLOC, LOAD, READONLY, CODE
  2 .bss          000001b6  00800186  00800186  00006d9e  2**0
                  ALLOC
  3 .eeprom       00000002  00810000  00810000  00006d9e  2**0
                  CONTENTS, ALLOC, LOAD, DATA
  4 .comment      00000030  00000000  00000000  00006da0  2**0
                  CONTENTS, READONLY
  5 .debug_aranges 00000770  00000000  00000000  00006dd0  2**0
                  CONTENTS, READONLY, DEBUGGING
  6 .debug_info   00015173  00000000  00000000  00007540  2**0
                  CONTENTS, READONLY, DEBUGGING
  7 .debug_abbrev 000022c8  00000000  00000000  0001c6b3  2**0
                  CONTENTS, READONLY, DEBUGGING
  8 .debug_line   00002b21  00000000  00000000  0001e97b  2**0
                  CONTENTS, READONLY, DEBUGGING
  9 .debug_frame  00001cf8  00000000  00000000  0002149c  2**2
                  CONTENTS, READONLY, DEBUGGING
 10 .debug_str    00003b3e  00000000  00000000  00023194  2**0
                  CONTENTS, READONLY, DEBUGGING
 11 .debug_loc    0001140a  00000000  00000000  00026cd2  2**0
                  CONTENTS, READONLY, DEBUGGING
 12 .debug_ranges 00000c20  00000000  00000000  000380dc  2**0
                  CONTENTS, READONLY, DEBUGGING

Disassembly of section .text:

00000000 <__vectors>:
       0:	0c 94 bf 1e 	jmp	0x3d7e	; 0x3d7e <__ctors_end>
       4:	0c 94 8d 28 	jmp	0x511a	; 0x511a <__vector_1>
       8:	0c 94 f3 28 	jmp	0x51e6	; 0x51e6 <__vector_2>
       c:	0c 94 dc 1e 	jmp	0x3db8	; 0x3db8 <__bad_interrupt>
      10:	0c 94 dc 1e 	jmp	0x3db8	; 0x3db8 <__bad_interrupt>
      14:	0c 94 59 29 	jmp	0x52b2	; 0x52b2 <__vector_5>
      18:	0c 94 dc 1e 	jmp	0x3db8	; 0x3db8 <__bad_interrupt>
      1c:	0c 94 dc 1e 	jmp	0x3db8	; 0x3db8 <__bad_interrupt>
      20:	0c 94 dc 1e 	jmp	0x3db8	; 0x3db8 <__bad_interrupt>
      24:	0c 94 dc 1e 	jmp	0x3db8	; 0x3db8 <__bad_interrupt>
      28:	0c 94 dc 1e 	jmp	0x3db8	; 0x3db8 <__bad_interrupt>
      2c:	0c 94 c8 25 	jmp	0x4b90	; 0x4b90 <__vector_11>
      30:	0c 94 dc 1e 	jmp	0x3db8	; 0x3db8 <__bad_interrupt>
      34:	0c 94 dc 1e 	jmp	0x3db8	; 0x3db8 <__bad_interrupt>
      38:	0c 94 49 28 	jmp	0x5092	; 0x5092 <__vector_14>
      3c:	0c 94 dc 1e 	jmp	0x3db8	; 0x3db8 <__bad_interrupt>
      40:	0c 94 dc 1e 	jmp	0x3db8	; 0x3db8 <__bad_interrupt>
      44:	0c 94 dc 1e 	jmp	0x3db8	; 0x3db8 <__bad_interrupt>
      48:	0c 94 dc 1e 	jmp	0x3db8	; 0x3db8 <__bad_interrupt>
      4c:	0c 94 dc 1e 	jmp	0x3db8	; 0x3db8 <__bad_interrupt>
      50:	0c 94 dc 1e 	jmp	0x3db8	; 0x3db8 <__bad_interrupt>
      54:	0c 94 dc 1e 	jmp	0x3db8	; 0x3db8 <__bad_interrupt>
      58:	0c 94 dc 1e 	jmp	0x3db8	; 0x3db8 <__bad_interrupt>
      5c:	0c 94 dc 1e 	jmp	0x3db8	; 0x3db8 <__bad_interrupt>
      60:	0c 94 dc 1e 	jmp	0x3db8	; 0x3db8 <__bad_interrupt>
      64:	0c 94 dc 1e 	jmp	0x3db8	; 0x3db8 <__bad_interrupt>
      68:	07 63       	ori	r16, 0x37	; 55
      6a:	42 36       	cpi	r20, 0x62	; 98
      6c:	b7 9b       	sbis	0x16, 7	; 22
      6e:	d8 a7       	std	Y+40, r29	; 0x28
      70:	1a 39       	cpi	r17, 0x9A	; 154
      72:	68 56       	subi	r22, 0x68	; 104
      74:	18 ae       	std	Y+56, r1	; 0x38
      76:	ba ab       	std	Y+50, r27	; 0x32
      78:	55 8c       	ldd	r5, Z+29	; 0x1d
      7a:	1d 3c       	cpi	r17, 0xCD	; 205
      7c:	b7 cc       	rjmp	.-1682   	; 0xfffff9ec <__eeprom_end+0xff7ef9ea>
      7e:	57 63       	ori	r21, 0x37	; 55
      80:	bd 6d       	ori	r27, 0xDD	; 221
      82:	ed fd       	.word	0xfded	; ????
      84:	75 3e       	cpi	r23, 0xE5	; 229
      86:	f6 17       	cp	r31, r22
      88:	72 31       	cpi	r23, 0x12	; 18
      8a:	bf 00       	.word	0x00bf	; ????
      8c:	00 00       	nop
      8e:	80 3f       	cpi	r24, 0xF0	; 240
      90:	08 00       	.word	0x0008	; ????
      92:	00 00       	nop
      94:	be 92       	st	-X, r11
      96:	24 49       	sbci	r18, 0x94	; 148
      98:	12 3e       	cpi	r17, 0xE2	; 226
      9a:	ab aa       	std	Y+51, r10	; 0x33
      9c:	aa 2a       	or	r10, r26
      9e:	be cd       	rjmp	.-1156   	; 0xfffffc1c <__eeprom_end+0xff7efc1a>
      a0:	cc cc       	rjmp	.-1640   	; 0xfffffa3a <__eeprom_end+0xff7efa38>
      a2:	4c 3e       	cpi	r20, 0xEC	; 236
      a4:	00 00       	nop
      a6:	00 80       	ld	r0, Z
      a8:	be ab       	std	Y+54, r27	; 0x36
      aa:	aa aa       	std	Y+50, r10	; 0x32
      ac:	aa 3e       	cpi	r26, 0xEA	; 234
      ae:	00 00       	nop
      b0:	00 00       	nop
      b2:	bf 00       	.word	0x00bf	; ????
      b4:	00 00       	nop
      b6:	80 3f       	cpi	r24, 0xF0	; 240
      b8:	00 00       	nop
      ba:	00 00       	nop
      bc:	00 08       	sbc	r0, r0
      be:	41 78       	andi	r20, 0x81	; 129
      c0:	d3 bb       	out	0x13, r29	; 19
      c2:	43 87       	std	Z+11, r20	; 0x0b
      c4:	d1 13       	cpse	r29, r17
      c6:	3d 19       	sub	r19, r13
      c8:	0e 3c       	cpi	r16, 0xCE	; 206
      ca:	c3 bd       	out	0x23, r28	; 35
      cc:	42 82       	std	Z+2, r4	; 0x02
      ce:	ad 2b       	or	r26, r29
      d0:	3e 68       	ori	r19, 0x8E	; 142
      d2:	ec 82       	std	Y+4, r14	; 0x04
      d4:	76 be       	out	0x36, r7	; 54
      d6:	d9 8f       	std	Y+25, r29	; 0x19
      d8:	e1 a9       	ldd	r30, Z+49	; 0x31
      da:	3e 4c       	sbci	r19, 0xCE	; 206
      dc:	80 ef       	ldi	r24, 0xF0	; 240
      de:	ff be       	out	0x3f, r15	; 63
      e0:	01 c4       	rjmp	.+2050   	; 0x8e4 <u8g_font_fur25+0x281>
      e2:	ff 7f       	andi	r31, 0xFF	; 255
      e4:	3f 00       	.word	0x003f	; ????
      e6:	00 00       	nop
      e8:	00 00       	nop
      ea:	b9 32       	cpi	r27, 0x29	; 41
      ec:	c8 32       	cpi	r28, 0x28	; 40
      ee:	7f 32       	cpi	r23, 0x2F	; 47
      f0:	cf 32       	cpi	r28, 0x2F	; 47
      f2:	7f 32       	cpi	r23, 0x2F	; 47
      f4:	7f 32       	cpi	r23, 0x2F	; 47
      f6:	7f 32       	cpi	r23, 0x2F	; 47
      f8:	7f 32       	cpi	r23, 0x2F	; 47
      fa:	7f 32       	cpi	r23, 0x2F	; 47
      fc:	7f 32       	cpi	r23, 0x2F	; 47
      fe:	7f 32       	cpi	r23, 0x2F	; 47
     100:	7f 32       	cpi	r23, 0x2F	; 47
     102:	7f 32       	cpi	r23, 0x2F	; 47
     104:	7f 32       	cpi	r23, 0x2F	; 47
     106:	7f 32       	cpi	r23, 0x2F	; 47
     108:	7f 32       	cpi	r23, 0x2F	; 47
     10a:	7f 32       	cpi	r23, 0x2F	; 47
     10c:	7f 32       	cpi	r23, 0x2F	; 47
     10e:	7f 32       	cpi	r23, 0x2F	; 47
     110:	7f 32       	cpi	r23, 0x2F	; 47
     112:	7f 32       	cpi	r23, 0x2F	; 47
     114:	7f 32       	cpi	r23, 0x2F	; 47
     116:	7f 32       	cpi	r23, 0x2F	; 47
     118:	7f 32       	cpi	r23, 0x2F	; 47
     11a:	7f 32       	cpi	r23, 0x2F	; 47
     11c:	7f 32       	cpi	r23, 0x2F	; 47
     11e:	7f 32       	cpi	r23, 0x2F	; 47
     120:	7f 32       	cpi	r23, 0x2F	; 47
     122:	7f 32       	cpi	r23, 0x2F	; 47
     124:	7f 32       	cpi	r23, 0x2F	; 47
     126:	dc 32       	cpi	r29, 0x2C	; 44
     128:	7f 32       	cpi	r23, 0x2F	; 47
     12a:	7f 32       	cpi	r23, 0x2F	; 47
     12c:	7f 32       	cpi	r23, 0x2F	; 47
     12e:	7f 32       	cpi	r23, 0x2F	; 47
     130:	7f 32       	cpi	r23, 0x2F	; 47
     132:	7f 32       	cpi	r23, 0x2F	; 47
     134:	7f 32       	cpi	r23, 0x2F	; 47
     136:	7f 32       	cpi	r23, 0x2F	; 47
     138:	88 32       	cpi	r24, 0x28	; 40
     13a:	7f 32       	cpi	r23, 0x2F	; 47
     13c:	7f 32       	cpi	r23, 0x2F	; 47
     13e:	7f 32       	cpi	r23, 0x2F	; 47
     140:	7f 32       	cpi	r23, 0x2F	; 47
     142:	7f 32       	cpi	r23, 0x2F	; 47
     144:	7f 32       	cpi	r23, 0x2F	; 47
     146:	7f 32       	cpi	r23, 0x2F	; 47
     148:	7f 32       	cpi	r23, 0x2F	; 47
     14a:	7f 32       	cpi	r23, 0x2F	; 47
     14c:	7f 32       	cpi	r23, 0x2F	; 47
     14e:	7c 32       	cpi	r23, 0x2C	; 44
     150:	ad 32       	cpi	r26, 0x2D	; 45
     152:	50 35       	cpi	r21, 0x50	; 80
     154:	75 35       	cpi	r23, 0x55	; 85
     156:	28 35       	cpi	r18, 0x58	; 88
     158:	7e 35       	cpi	r23, 0x5E	; 94
     15a:	34 35       	cpi	r19, 0x54	; 84
     15c:	3f 35       	cpi	r19, 0x5F	; 95
     15e:	1f 35       	cpi	r17, 0x5F	; 95

00000160 <__trampolines_end>:
     160:	00 00       	nop
     162:	25 00       	.word	0x0025	; ????
     164:	28 00       	.word	0x0028	; ????
     166:	2b 00       	.word	0x002b	; ????

00000168 <u8g_avr_ddr_P>:
     168:	00 00 24 00 27 00 2a 00                             ..$.'.*.

00000170 <u8g_dev_ssd13xx_sleep_off>:
     170:	ff e0 ff d1 af ff 32 ff d0 ff fe                    ......2....

0000017b <u8g_dev_ssd13xx_sleep_on>:
     17b:	ff e0 ff d1 ae ff d0 ff fe                          .........

00000184 <u8g_dev_ssd1306_128x64_data_start>:
     184:	ff e0 ff d1 10 00 ff fe                             ........

0000018c <u8g_dev_ssd1306_128x64_adafruit2_init_seq>:
     18c:	ff d0 ff e0 ff c1 ff d1 ae d5 80 a8 3f d3 00 40     ............?..@
     19c:	8d 14 20 00 a1 c8 da 12 81 ff d9 f1 db 40 2e a4     .. ..........@..
     1ac:	a6 af ff d0 ff fe                                   ......

000001b2 <u8g_font_fur30n>:
     1b2:	00 36 36 fd f5 1e 00 00 00 00 2a 3a 00 1f fb 1e     .66.......*:....
     1c2:	00 10 0f 1e 1a 05 0f 0c 30 1c 38 0e 70 0e 70 07     ........0.8.p.p.
     1d2:	e0 03 c0 fd bf ff ff f3 cf 03 c0 06 60 0e 70 1e     ............`.p.
     1e2:	78 1c 38 0c 30 18 19 4b 28 08 00 00 38 00 00 38     x.8.0..K(...8..8
     1f2:	00 00 38 00 00 38 00 00 38 00 00 38 00 00 38 00     ..8..8..8..8..8.
     202:	00 38 00 00 38 00 00 38 00 00 38 00 ff ff ff ff     .8..8..8..8.....
     212:	ff ff ff ff ff 00 38 00 00 38 00 00 38 00 00 38     ......8..8..8..8
     222:	00 00 38 00 00 38 00 00 38 00 00 38 00 00 38 00     ..8..8..8..8..8.
     232:	00 38 00 00 38 00 07 0a 0a 0b 02 fb 3e 3c 3c 7c     .8..8.......><<|
     242:	78 78 70 70 e0 e0 0a 03 06 0e 02 08 ff c0 ff c0     xxpp............
     252:	ff c0 04 05 05 0b 04 00 f0 f0 f0 f0 f0 0c 21 42     ..............!B
     262:	10 02 fe 00 70 00 70 00 60 00 e0 00 e0 00 e0 00     ....p.p.`.......
     272:	c0 01 c0 01 c0 01 80 03 80 03 80 03 80 07 00 07     ................
     282:	00 07 00 06 00 0e 00 0e 00 0e 00 1c 00 1c 00 1c     ................
     292:	00 18 00 38 00 38 00 38 00 70 00 70 00 70 00 60     ...8.8.8.p.p.p.`
     2a2:	00 e0 00 e0 00 12 1e 5a 16 02 01 07 f8 00 1f fe     .......Z........
     2b2:	00 3f ff 00 3c 0f 00 78 07 80 78 07 80 70 07 80     .?..<..x..x..p..
     2c2:	70 03 80 f0 03 c0 f0 03 c0 f0 03 c0 f0 03 c0 f0     p...............
     2d2:	03 c0 f0 03 c0 f0 03 c0 f0 03 c0 f0 03 c0 f0 03     ................
     2e2:	c0 f0 03 c0 f0 03 c0 f0 03 c0 70 03 c0 70 03 80     ..........p..p..
     2f2:	78 07 80 78 07 80 38 07 00 3c 0f 00 1f fe 00 0f     x..x..8..<......
     302:	fe 00 07 f8 00 0a 1e 3c 16 05 00 07 c0 0f c0 1f     .......<........
     312:	c0 3f c0 7f c0 fb c0 f3 c0 c3 c0 03 c0 03 c0 03     .?..............
     322:	c0 03 c0 03 c0 03 c0 03 c0 03 c0 03 c0 03 c0 03     ................
     332:	c0 03 c0 03 c0 03 c0 03 c0 03 c0 03 c0 03 c0 03     ................
     342:	c0 03 c0 03 c0 03 c0 11 1e 5a 16 02 01 0f f8 00     .........Z......
     352:	1f fc 00 3f fe 00 7c 0f 00 78 07 00 78 07 80 78     ...?..|..x..x..x
     362:	07 80 f0 07 80 00 07 80 00 07 80 00 07 80 00 0f     ................
     372:	00 00 1f 00 00 1e 00 00 3e 00 00 7c 00 00 f8 00     ........>..|....
     382:	00 f8 00 01 f0 00 03 e0 00 07 c0 00 0f 80 00 1f     ................
     392:	00 00 1f 00 00 3e 00 00 7c 00 00 f8 00 00 ff ff     .....>..|.......
     3a2:	80 ff ff 80 ff ff 80 12 1e 5a 16 02 01 07 f8 00     .........Z......
     3b2:	1f fe 00 3e 1f 00 3c 07 80 7c 03 80 78 03 c0 78     ...>..<..|..x..x
     3c2:	03 c0 78 03 c0 00 03 c0 00 03 80 00 07 80 00 0f     ..x.............
     3d2:	00 00 3e 00 03 fc 00 03 f8 00 03 fe 00 00 3f 00     ..>...........?.
     3e2:	00 0f 80 00 07 80 00 03 c0 00 03 c0 00 03 c0 f0     ................
     3f2:	03 c0 f0 03 c0 f8 03 c0 78 07 80 7c 0f 80 3e 1f     ........x..|..>.
     402:	00 1f fe 00 0f f8 00 14 1e 5a 16 01 00 00 0f 80     .........Z......
     412:	00 1f 80 00 1f 80 00 3f 80 00 7f 80 00 7f 80 00     .......?........
     422:	f7 80 01 e7 80 01 e7 80 03 c7 80 03 87 80 07 87     ................
     432:	80 0f 07 80 0e 07 80 1e 07 80 3c 07 80 3c 07 80     ..........<..<..
     442:	78 07 80 f0 07 80 f0 07 80 ff ff f0 ff ff f0 ff     x...............
     452:	ff f0 00 07 80 00 07 80 00 07 80 00 07 80 00 07     ................
     462:	80 00 07 80 00 07 80 12 1e 5a 16 02 00 7f ff 00     .........Z......
     472:	7f ff 00 7f ff 00 78 00 00 78 00 00 78 00 00 78     ......x..x..x..x
     482:	00 00 78 00 00 78 00 00 78 00 00 78 60 00 7b fc     ..x..x..x..x`.{.
     492:	00 7f fe 00 7e 1f 00 7c 07 80 78 07 80 70 03 80     ....~..|..x..p..
     4a2:	00 03 c0 00 03 c0 00 03 c0 00 03 c0 00 03 c0 00     ................
     4b2:	03 c0 f0 03 c0 f0 07 80 f0 07 80 78 0f 00 7f fe     ...........x....
     4c2:	00 1f fc 00 0f f8 00 13 1e 5a 16 02 01 03 fc 00     .........Z......
     4d2:	0f ff 00 1f ff 00 3f 0f 80 3e 07 80 7c 03 c0 78     ......?..>..|..x
     4e2:	03 c0 78 03 c0 f0 00 00 f0 00 00 f0 00 00 f0 00     ..x.............
     4f2:	00 f1 fc 00 f3 ff 00 f7 ff 80 fe 07 80 fc 03 c0     ................
     502:	fc 03 c0 f8 01 c0 f8 01 e0 f8 01 e0 f8 01 e0 f8     ................
     512:	01 e0 f8 01 e0 78 01 c0 7c 03 c0 3c 07 80 1f 0f     .....x..|..<....
     522:	80 0f ff 00 07 fc 00 12 1e 5a 16 02 00 ff ff c0     .........Z......
     532:	ff ff c0 ff ff c0 00 03 c0 00 03 c0 00 07 80 00     ................
     542:	07 80 00 07 80 00 0f 00 00 0f 00 00 1f 00 00 1e     ................
     552:	00 00 1e 00 00 3c 00 00 3c 00 00 3c 00 00 78 00     .....<..<..<..x.
     562:	00 78 00 00 f8 00 00 f0 00 00 f0 00 01 f0 00 01     .x..............
     572:	e0 00 01 e0 00 03 c0 00 03 c0 00 07 c0 00 07 80     ................
     582:	00 07 80 00 0f 80 00 13 1e 5a 16 02 01 07 fc 00     .........Z......
     592:	1f fe 00 3e 0f 80 3c 07 80 78 03 c0 78 03 c0 78     ...>..<..x..x..x
     5a2:	03 c0 78 03 c0 78 03 c0 78 03 c0 38 03 80 3c 07     ..x..x..x..8..<.
     5b2:	80 1e 0f 00 0f fe 00 07 fc 00 1f fe 00 3c 07 80     .............<..
     5c2:	78 03 80 70 01 c0 f0 01 c0 f0 01 e0 f0 01 e0 f0     x..p............
     5d2:	01 e0 f0 01 e0 f0 01 e0 78 03 c0 78 03 c0 3e 0f     ........x..x..>.
     5e2:	80 1f ff 00 07 fc 00 13 1e 5a 16 02 01 07 fc 00     .........Z......
     5f2:	1f ff 00 3e 1f 80 78 07 80 78 03 c0 70 03 c0 f0     ...>..x..x..p...
     602:	03 c0 f0 03 e0 f0 01 e0 f0 01 e0 f0 03 e0 f0 03     ................
     612:	e0 f0 03 e0 70 03 e0 78 07 e0 3c 0f e0 3f fd e0     ....p..x..<..?..
     622:	1f f9 e0 07 f1 e0 00 01 c0 00 01 c0 00 01 c0 00     ................
     632:	03 c0 70 03 c0 70 03 80 78 07 80 38 0f 00 3e 1f     ..p..p..x..8..>.
     642:	00 1f fe 00 0f f8 00 04 14 14 0b 04 00 f0 f0 f0     ................
     652:	f0 f0 00 00 00 00 00 00 00 00 00 00 f0 f0 f0 f0     ................
     662:	f0                                                  .

00000663 <u8g_font_fur25>:
     663:	00 2e 2d fe f7 19 06 77 0f 1b 20 ff f9 24 f7 19     ..-....w.. ..$..
     673:	f9 00 00 00 0a 00 00 03 19 19 0c 04 00 e0 e0 e0     ................
     683:	e0 e0 e0 e0 e0 e0 e0 e0 e0 e0 e0 e0 e0 e0 e0 e0     ................
     693:	00 00 00 e0 e0 e0 0b 0a 14 0f 02 0f f1 e0 70 e0     ..............p.
     6a3:	70 e0 70 e0 70 e0 70 e0 70 e0 60 c0 60 c0 60 c0     p.p.p.p.p.`.`.`.
     6b3:	16 19 4b 19 02 00 00 70 e0 00 70 e0 00 60 c0 00     ..K....p..p..`..
     6c3:	e1 c0 00 e1 c0 00 c1 80 00 c1 80 3f ff fc 3f ff     ...........?..?.
     6d3:	f8 01 83 00 03 87 00 03 86 00 03 06 00 07 0e 00     ................
     6e3:	ff ff e0 ff ff e0 0e 1c 00 0e 1c 00 0c 18 00 0c     ................
     6f3:	18 00 1c 38 00 1c 38 00 18 30 00 38 70 00 38 70     ...8..8..0.8p.8p
     703:	00 10 20 40 12 01 fc 01 80 01 80 01 80 0f f0 1f     .. @............
     713:	f8 3f fc 79 9e 71 8e 71 8e 71 8e 71 80 71 80 79     .?.y.q.q.q.q.q.y
     723:	80 3f 80 1f f0 0f fc 01 fe 01 9f 01 8f 01 87 e1     .?..............
     733:	87 e1 87 e1 87 f1 87 79 8f 7f fe 3f fc 0f f0 01     .......y...?....
     743:	80 01 80 01 80 01 80 1c 1b 6c 20 02 00 00 00 0e     .........l .....
     753:	00 00 00 0c 00 1f 80 18 00 3f c0 18 00 79 e0 30     .........?...y.0
     763:	00 f0 f0 30 00 e0 70 60 00 e0 70 e0 00 e0 70 c0     ...0..p`..p...p.
     773:	00 e0 71 c0 00 f0 71 80 00 70 e3 80 00 3f e3 00     ..q...q..p...?..
     783:	00 1f 86 1f 80 00 06 3f c0 00 0c 79 e0 00 0c f0     .......?...y....
     793:	f0 00 18 e0 70 00 38 e0 70 00 30 e0 70 00 70 e0     ....p.8.p.0.p.p.
     7a3:	70 00 60 e0 70 00 e0 e0 70 00 c0 f0 f0 01 80 79     p.`.p...p......y
     7b3:	e0 01 80 3f c0 03 00 1f 80 17 19 4b 1a 02 01 07     ...?.......K....
     7c3:	f8 00 0f fc 00 1e 1e 00 1c 0e 00 1c 0e 00 1c 0e     ................
     7d3:	00 1e 1c 00 1e 3c 00 0f f8 00 07 e0 00 0f c0 70     .....<.........p
     7e3:	1f e0 70 3d e0 70 78 f0 70 f0 78 70 e0 3c 70 e0     ..p=.px.p.xp.<p.
     7f3:	1e e0 e0 0f e0 e0 07 e0 f0 03 c0 78 03 e0 7c 0f     ...........x..|.
     803:	f0 3f ff 78 1f fc 7c 07 f0 3e 04 0a 0a 0d 04 0f     .?.x..|..>......
     813:	f0 70 70 70 70 70 70 60 60 60 06 1e 1e 0c 03 fb     .pppppp```......
     823:	0c 18 18 38 38 70 70 70 70 f0 e0 e0 e0 e0 e0 e0     ...88pppp.......
     833:	e0 e0 e0 e0 f0 70 70 70 70 38 38 18 18 0c 06 1e     .....pppp88.....
     843:	1e 0c 03 fb e0 60 70 70 30 38 38 38 38 1c 1c 1c     .....`pp08888...
     853:	1c 1c 1c 1c 1c 1c 1c 1c 1c 3c 38 38 38 30 70 70     .........<8880pp
     863:	60 e0 0e 0d 1a 16 04 0c 18 60 1c e0 1c e0 0c c0     `........`......
     873:	07 80 f3 3c ff fc e7 9c 07 80 0c c0 1c e0 3c e0     ...<..........<.
     883:	18 60 14 15 3f 22 07 00 00 60 00 00 60 00 00 60     .`..?"...`..`..`
     893:	00 00 60 00 00 60 00 00 60 00 00 60 00 00 60 00     ..`..`..`..`..`.
     8a3:	00 60 00 ff ff f0 ff ff f0 00 60 00 00 60 00 00     .`........`..`..
     8b3:	60 00 00 60 00 00 60 00 00 60 00 00 60 00 00 60     `..`..`..`..`..`
     8c3:	00 00 60 00 00 60 00 06 09 09 09 02 fc 3c 78 78     ..`..`.......<xx
     8d3:	70 70 e0 e0 e0 c0 08 03 03 0a 01 07 ff ff ff 03     pp..............
     8e3:	04 04 09 03 00 e0 e0 e0 e0 0a 1c 38 0d 02 fe 00     ...........8....
     8f3:	c0 01 c0 01 80 01 80 03 80 03 00 03 00 03 00 07     ................
     903:	00 06 00 06 00 0e 00 0c 00 0c 00 1c 00 1c 00 18     ................
     913:	00 18 00 38 00 30 00 30 00 70 00 70 00 60 00 60     ...8.0.0.p.p.`.`
     923:	00 e0 00 c0 00 c0 00 0f 19 32 13 02 01 0f e0 3f     .........2.....?
     933:	f8 3e f8 78 3c 70 1c 70 1e e0 0e e0 0e e0 0e e0     .>.x<p.p........
     943:	0e e0 0e e0 0e e0 0e e0 0e e0 0e e0 0e e0 0e f0     ................
     953:	0e 70 1e 70 1c 78 1c 3c 3c 3f f8 1f f0 07 c0 08     .p.p.x.<<?......
     963:	19 19 13 05 00 0f 1f 3f 7f ff e7 87 07 07 07 07     .......?........
     973:	07 07 07 07 07 07 07 07 07 07 07 07 07 07 0f 19     ................
     983:	32 13 02 01 0f f0 3f f8 3e fc 78 1c 78 1e 70 0e     2.....?.>.x.x.p.
     993:	f0 0e 00 0e 00 1e 00 1c 00 3c 00 78 00 78 00 f0     .........<.x.x..
     9a3:	01 e0 03 c0 07 80 0f 00 1f 00 3e 00 3c 00 78 00     ..........>.<.x.
     9b3:	f0 00 ff fe ff fe 10 19 32 13 02 01 0f f0 3f f8     ........2.....?.
     9c3:	3c 1c 78 0e 70 0e 70 0e 00 0e 00 0e 00 1c 00 78     <.x.p.p........x
     9d3:	03 f0 03 f0 00 f8 00 1e 00 0e 00 0f 00 07 00 07     ................
     9e3:	f0 07 f0 07 f0 0e 78 1e 3c 7c 1f f8 07 e0 11 19     ......x.<|......
     9f3:	4b 13 01 00 00 3c 00 00 7c 00 00 7c 00 00 fc 00     K....<..|..|....
     a03:	01 dc 00 01 dc 00 03 9c 00 07 1c 00 07 1c 00 0e     ................
     a13:	1c 00 1c 1c 00 3c 1c 00 38 1c 00 70 1c 00 f0 1c     .....<..8..p....
     a23:	00 e0 1c 00 ff ff 80 ff ff 80 ff ff 80 00 1c 00     ................
     a33:	00 1c 00 00 1c 00 00 1c 00 00 1c 00 00 1c 00 0f     ................
     a43:	19 32 13 02 00 7f fc 7f fc 7f fc 70 00 70 00 70     .2.........p.p.p
     a53:	00 70 00 70 00 73 f0 7f f8 7c 3c 78 1c 70 1e 60     .p.p.s...|<x.p.`
     a63:	0e 00 0e 00 0e 00 0e 00 0e 00 0e e0 1e f0 1c 70     ...............p
     a73:	3c 7c 78 3f f0 0f c0 10 19 32 13 01 01 0f f0 1f     <|x?.....2......
     a83:	fc 3c 1c 78 1e 70 0e f0 0e e0 00 e0 00 e0 00 e3     .<.x.p..........
     a93:	f0 e7 fc ef fc fc 1e f8 0e f0 0f f0 07 f0 07 f0     ................
     aa3:	07 f0 07 70 07 78 0e 38 0e 3e 3c 0f f8 07 e0 0f     ...p.x.8.><.....
     ab3:	19 32 13 02 00 ff fe ff fe 00 0e 00 1e 00 1c 00     .2..............
     ac3:	1c 00 3c 00 38 00 38 00 78 00 70 00 f0 00 f0 00     ..<.8.8.x.p.....
     ad3:	e0 01 e0 01 e0 01 c0 03 c0 03 80 07 80 07 80 07     ................
     ae3:	00 0f 00 0f 00 0e 00 10 19 32 13 01 01 0f f0 3f     .........2.....?
     af3:	fc 3c 3c 78 1e 70 0e 70 0e 70 0e 70 0e 38 1c 3c     .<<x.p.p.p.p.8.<
     b03:	3c 0f f0 0f f0 3e 38 38 1c 70 0e e0 07 e0 07 e0     <....>88.p......
     b13:	07 e0 07 e0 07 f0 0f 78 0e 3c 3c 1f f8 07 e0 10     .......x.<<.....
     b23:	19 32 13 02 01 1f f8 3f fc 78 1e 70 0e f0 0f e0     .2.....?.x.p....
     b33:	0f e0 0f e0 0f e0 0f f0 0f 70 1f 78 3f 3f f7 0f     .........p.x??..
     b43:	e7 00 07 00 07 00 07 00 0e 70 0e 70 0e 70 1e 70     .........p.p.p.p
     b53:	3c 3c 78 1f f0 0f e0 03 12 12 09 03 00 e0 e0 e0     <<x.............
     b63:	e0 00 00 00 00 00 00 00 00 00 00 e0 e0 e0 e0 06     ................
     b73:	16 16 09 01 fc 38 38 38 38 00 00 00 00 00 00 00     .....8888.......
     b83:	00 00 3c 38 38 38 70 70 70 60 e0 15 13 39 22 07     ..<888ppp`...9".
     b93:	01 00 00 08 00 00 38 00 01 f0 00 0f c0 00 3e 00     ......8.......>.
     ba3:	01 f8 00 07 c0 00 3e 00 00 f8 00 00 c0 00 00 f8     ......>.........
     bb3:	00 00 3e 00 00 07 c0 00 01 f8 00 00 3e 00 00 07     ..>.........>...
     bc3:	c0 00 01 f8 00 00 38 00 00 08 14 08 18 22 07 06     ......8......"..
     bd3:	ff ff f0 ff ff f0 00 00 00 00 00 00 00 00 00 00     ................
     be3:	00 00 ff ff f0 ff ff f0 15 11 33 22 07 02 e0 00     ..........3"....
     bf3:	00 fc 00 00 1f 00 00 07 e0 00 00 f8 00 00 1f 00     ................
     c03:	00 07 c0 00 00 f8 00 00 38 00 00 f8 00 07 c0 00     ........8.......
     c13:	3f 00 00 f8 00 07 e0 00 1f 00 00 f8 00 00 e0 00     ?...............
     c23:	00 0f 19 32 12 01 01 1f e0 3f f8 7d fc f0 1e 60     ...2.....?.}...`
     c33:	0e 00 0e 00 0e 00 1e 00 1c 00 3c 00 78 00 f0 01     ..........<.x...
     c43:	c0 03 80 07 80 07 00 07 00 07 00 07 00 00 00 00     ................
     c53:	00 00 00 07 00 07 00 07 00 1e 1e 78 22 02 fb 00     ...........x"...
     c63:	1f f0 00 00 ff fe 00 03 ff ff 00 07 e0 1f c0 0f     ................
     c73:	80 03 e0 1e 00 00 f0 3c 00 00 70 38 1f 38 78 70     .......<..p8.8xp
     c83:	3f b8 38 70 7d f8 38 f0 70 78 3c e0 f0 78 1c e0     ?.8p}.8.px<..x..
     c93:	e0 38 1c e0 e0 38 1c e0 e0 38 1c e0 e0 38 1c e0     .8...8...8...8..
     ca3:	e0 38 1c e0 e0 38 38 f0 e0 78 38 70 70 78 78 70     .8...88..x8ppxxp
     cb3:	78 fe f0 78 3f df e0 38 1f 0f c0 3c 00 00 00 1e     x..x?..8...<....
     cc3:	00 00 00 0f 80 00 00 07 e0 00 00 03 ff f8 00 00     ................
     cd3:	ff f8 00 00 1f f0 00 18 19 4b 1a 01 00 00 3c 00     .........K....<.
     ce3:	00 7c 00 00 7e 00 00 fe 00 00 ee 00 00 ef 00 01     .|..~...........
     cf3:	e7 00 01 c7 80 03 c3 80 03 83 c0 07 83 c0 07 01     ................
     d03:	c0 07 01 e0 0f 00 e0 0e 00 f0 1f ff f0 1f ff f0     ................
     d13:	1f ff f8 3c 00 38 38 00 3c 78 00 1c 70 00 1e 70     ...<.88.<x..p..p
     d23:	00 1e f0 00 0e e0 00 0f 12 19 4b 17 03 00 ff f8     ..........K.....
     d33:	00 ff fe 00 ff ff 00 e0 0f 80 e0 07 80 e0 03 80     ................
     d43:	e0 03 80 e0 03 80 e0 07 80 e0 0f 00 ff fe 00 ff     ................
     d53:	fc 00 ff fe 00 e0 0f 00 e0 03 80 e0 03 c0 e0 01     ................
     d63:	c0 e0 01 c0 e0 01 c0 e0 03 c0 e0 07 c0 e0 0f 80     ................
     d73:	ff ff 00 ff fe 00 ff f8 00 13 19 4b 17 02 01 03     ...........K....
     d83:	fe 00 0f ff 80 1e 03 c0 3c 01 c0 38 00 e0 70 00     ........<..8..p.
     d93:	e0 70 00 00 70 00 00 e0 00 00 e0 00 00 e0 00 00     .p..p...........
     da3:	e0 00 00 e0 00 00 e0 00 00 e0 00 00 e0 00 00 e0     ................
     db3:	00 00 70 00 00 70 00 e0 70 00 e0 38 01 e0 3c 01     ..p..p..p..8..<.
     dc3:	c0 1f 07 80 0f ff 00 01 fc 00 14 19 4b 19 03 00     ............K...
     dd3:	ff f0 00 ff fe 00 ff ff 00 e0 1f 80 e0 07 c0 e0     ................
     de3:	03 c0 e0 01 e0 e0 00 e0 e0 00 f0 e0 00 f0 e0 00     ................
     df3:	70 e0 00 70 e0 00 70 e0 00 70 e0 00 70 e0 00 f0     p..p..p..p..p...
     e03:	e0 00 f0 e0 00 e0 e0 01 e0 e0 03 c0 e0 07 c0 e0     ................
     e13:	1f 80 ff ff 00 ff fc 00 ff f0 00 10 19 32 15 03     .............2..
     e23:	00 ff fe ff fe ff fe e0 00 e0 00 e0 00 e0 00 e0     ................
     e33:	00 e0 00 e0 00 e0 00 ff fe ff fe ff fe e0 00 e0     ................
     e43:	00 e0 00 e0 00 e0 00 e0 00 e0 00 e0 00 ff ff ff     ................
     e53:	ff ff ff 0f 19 32 14 03 00 ff fe ff fe ff fe e0     .....2..........
     e63:	00 e0 00 e0 00 e0 00 e0 00 e0 00 e0 00 e0 00 ff     ................
     e73:	fc ff fc ff fc e0 00 e0 00 e0 00 e0 00 e0 00 e0     ................
     e83:	00 e0 00 e0 00 e0 00 e0 00 e0 00 15 19 4b 1a 02     .............K..
     e93:	01 01 ff 80 07 ff c0 0f ff e0 1e 00 f0 3c 00 78     .............<.x
     ea3:	78 00 38 70 00 00 70 00 00 f0 00 00 e0 00 00 e0     x.8p..p.........
     eb3:	00 00 e0 0f f8 e0 0f f8 e0 0f f8 e0 00 38 f0 00     .............8..
     ec3:	38 70 00 38 70 00 38 78 00 38 3c 00 38 3e 00 38     8p.8p.8x.8<.8>.8
     ed3:	1f 00 f8 0f ff f8 07 ff f0 00 ff 80 12 19 4b 18     ..............K.
     ee3:	03 00 e0 01 c0 e0 01 c0 e0 01 c0 e0 01 c0 e0 01     ................
     ef3:	c0 e0 01 c0 e0 01 c0 e0 01 c0 e0 01 c0 e0 01 c0     ................
     f03:	e0 01 c0 ff ff c0 ff ff c0 ff ff c0 e0 01 c0 e0     ................
     f13:	01 c0 e0 01 c0 e0 01 c0 e0 01 c0 e0 01 c0 e0 01     ................
     f23:	c0 e0 01 c0 e0 01 c0 e0 01 c0 e0 01 c0 03 19 19     ................
     f33:	09 03 00 e0 e0 e0 e0 e0 e0 e0 e0 e0 e0 e0 e0 e0     ................
     f43:	e0 e0 e0 e0 e0 e0 e0 e0 e0 e0 e0 e0 0e 19 32 13     ..............2.
     f53:	02 00 00 1c 00 1c 00 1c 00 1c 00 1c 00 1c 00 1c     ................
     f63:	00 1c 00 1c 00 1c 00 1c 00 1c 00 1c 00 1c 00 1c     ................
     f73:	00 1c 00 1c 00 1c e0 1c e0 1c f0 3c 78 78 7f f0     ...........<xx..
     f83:	3f e0 0f c0 12 19 4b 17 03 00 e0 07 80 e0 0f 00     ?.....K.........
     f93:	e0 1e 00 e0 3c 00 e0 78 00 e0 f0 00 e1 e0 00 e3     ....<..x........
     fa3:	c0 00 e7 80 00 ef 00 00 fe 00 00 ff 00 00 ef 80     ................
     fb3:	00 e7 80 00 e7 c0 00 e3 e0 00 e1 f0 00 e0 f8 00     ................
     fc3:	e0 78 00 e0 3c 00 e0 3e 00 e0 1f 00 e0 0f 80 e0     .x..<..>........
     fd3:	07 c0 e0 03 c0 0f 19 32 13 03 00 e0 00 e0 00 e0     .......2........
     fe3:	00 e0 00 e0 00 e0 00 e0 00 e0 00 e0 00 e0 00 e0     ................
     ff3:	00 e0 00 e0 00 e0 00 e0 00 e0 00 e0 00 e0 00 e0     ................
    1003:	00 e0 00 e0 00 e0 00 ff fe ff fe ff fe 19 19 64     ...............d
    1013:	1f 03 00 f8 00 0f 80 fc 00 1f 80 fc 00 1f 80 fc     ................
    1023:	00 1f 80 ee 00 3b 80 ee 00 3b 80 ef 00 7b 80 e7     .....;...;...{..
    1033:	00 73 80 e7 00 73 80 e7 80 f3 80 e3 80 e3 80 e3     .s...s..........
    1043:	80 e3 80 e1 c1 c3 80 e1 c1 c3 80 e1 c1 c3 80 e0     ................
    1053:	e3 83 80 e0 e3 83 80 e0 f7 83 80 e0 77 03 80 e0     ............w...
    1063:	77 03 80 e0 7f 03 80 e0 3e 03 80 e0 3e 03 80 e0     w.......>...>...
    1073:	1c 03 80 e0 1c 03 80 13 19 4b 19 03 00 f8 00 e0     .........K......
    1083:	f8 00 e0 fc 00 e0 fe 00 e0 fe 00 e0 ef 00 e0 ef     ................
    1093:	00 e0 e7 80 e0 e7 80 e0 e3 c0 e0 e3 c0 e0 e1 e0     ................
    10a3:	e0 e0 e0 e0 e0 f0 e0 e0 78 e0 e0 78 e0 e0 3c e0     ........x..x..<.
    10b3:	e0 3c e0 e0 1e e0 e0 1e e0 e0 0f e0 e0 0f e0 e0     .<..............
    10c3:	07 e0 e0 03 e0 e0 03 e0 16 19 4b 1a 02 01 03 ff     ..........K.....
    10d3:	00 0f ff c0 1f ff e0 3e 01 f0 38 00 70 78 00 78     .......>..8.px.x
    10e3:	70 00 38 f0 00 38 f0 00 1c e0 00 1c e0 00 1c e0     p.8..8..........
    10f3:	00 1c e0 00 1c e0 00 1c e0 00 1c f0 00 3c 70 00     .............<p.
    1103:	38 70 00 38 78 00 78 38 00 70 3c 00 f0 1f 03 e0     8p.8x.x8.p<.....
    1113:	0f ff c0 07 ff 80 00 fc 00 10 19 32 15 03 00 ff     ...........2....
    1123:	e0 ff fc ff fe e0 1e e0 0f e0 07 e0 07 e0 07 e0     ................
    1133:	07 e0 0f e0 1e ff fe ff fc ff e0 e0 00 e0 00 e0     ................
    1143:	00 e0 00 e0 00 e0 00 e0 00 e0 00 e0 00 e0 00 e0     ................
    1153:	00 18 19 4b 1b 02 01 03 ff 00 0f ff c0 1f ff e0     ...K............
    1163:	3e 01 f0 38 00 70 78 00 78 70 00 38 f0 00 38 f0     >..8.px.xp.8..8.
    1173:	00 1c e0 00 1c e0 00 1c e0 00 1c e0 00 1c e0 00     ................
    1183:	1c e0 00 1c f0 00 3c 70 00 38 70 00 38 78 00 78     ......<p.8p.8x.x
    1193:	38 00 70 3c 00 f0 1f 03 e0 0f ff ff 07 ff ff 00     8.p<............
    11a3:	ff ff 11 19 4b 15 03 00 ff f0 00 ff fc 00 ff fe     ....K...........
    11b3:	00 e0 1f 00 e0 0f 00 e0 07 00 e0 07 00 e0 07 00     ................
    11c3:	e0 0f 00 e0 1e 00 ff fc 00 ff f0 00 ff fc 00 e0     ................
    11d3:	3c 00 e0 1e 00 e0 0e 00 e0 0e 00 e0 0e 00 e0 0f     <...............
    11e3:	00 e0 07 00 e0 07 00 e0 07 00 e0 07 00 e0 07 00     ................
    11f3:	e0 07 80 12 19 4b 16 02 01 07 fc 00 1f fe 00 3f     .....K.........?
    1203:	ff 00 78 07 80 70 03 80 70 03 80 70 00 00 70 00     ..x..p..p..p..p.
    1213:	00 78 00 00 7c 00 00 3f c0 00 1f fc 00 07 ff 00     .x..|..?........
    1223:	00 3f 80 00 07 80 00 03 c0 00 01 c0 e0 01 c0 e0     .?..............
    1233:	01 c0 f0 01 c0 70 03 c0 7c 0f 80 3f ff 00 1f fe     .....p..|..?....
    1243:	00 07 f0 00 13 19 4b 15 01 00 ff ff e0 ff ff e0     ......K.........
    1253:	ff ff e0 00 e0 00 00 e0 00 00 e0 00 00 e0 00 00     ................
    1263:	e0 00 00 e0 00 00 e0 00 00 e0 00 00 e0 00 00 e0     ................
    1273:	00 00 e0 00 00 e0 00 00 e0 00 00 e0 00 00 e0 00     ................
    1283:	00 e0 00 00 e0 00 00 e0 00 00 e0 00 00 e0 00 00     ................
    1293:	e0 00 00 e0 00 13 19 4b 19 03 00 e0 00 e0 e0 00     .......K........
    12a3:	e0 e0 00 e0 e0 00 e0 e0 00 e0 e0 00 e0 e0 00 e0     ................
    12b3:	e0 00 e0 e0 00 e0 e0 00 e0 e0 00 e0 e0 00 e0 e0     ................
    12c3:	00 e0 e0 00 e0 e0 00 e0 e0 00 e0 e0 00 e0 f0 00     ................
    12d3:	e0 f0 01 e0 70 01 c0 78 03 c0 3e 07 c0 3f ff 80     ....p..x..>..?..
    12e3:	1f ff 00 03 f8 00 15 19 4b 16 01 00 f0 00 78 f0     ........K.....x.
    12f3:	00 f0 f0 00 f0 78 00 f0 78 01 e0 78 01 e0 3c 01     .....x..x..x..<.
    1303:	c0 3c 03 c0 3c 03 c0 1c 03 80 1e 07 80 0e 07 80     .<..<...........
    1313:	0e 07 00 0f 0f 00 07 0f 00 07 0e 00 07 9e 00 03     ................
    1323:	9e 00 03 9c 00 03 fc 00 01 fc 00 01 f8 00 01 f8     ................
    1333:	00 00 f8 00 00 f0 00 1f 19 64 21 01 00 e0 07 c0     .........d!.....
    1343:	0e f0 07 c0 0e f0 07 c0 1e 70 07 c0 1e 70 0e e0     .........p...p..
    1353:	1c 78 0e e0 3c 78 0e e0 3c 38 0e f0 38 38 1c 70     .x..<x..<8..88.p
    1363:	38 3c 1c 70 78 1c 1c 70 78 1c 3c 38 70 1c 38 38     8<.px..px.<8p.88
    1373:	70 1e 38 38 f0 0e 38 38 e0 0e 70 1c e0 0e 70 1c     p.88..88..p...p.
    1383:	e0 07 70 1d c0 07 70 1d c0 07 e0 0f c0 07 e0 0f     ..p...p.........
    1393:	c0 03 e0 0f 80 03 e0 07 80 03 c0 07 80 01 c0 07     ................
    13a3:	00 16 19 4b 18 01 00 7c 00 78 3c 00 f0 1e 01 e0     ...K...|.x<.....
    13b3:	1f 01 e0 0f 03 c0 07 87 80 07 87 80 03 cf 00 01     ................
    13c3:	ee 00 01 fe 00 00 fc 00 00 78 00 00 fc 00 00 fc     .........x......
    13d3:	00 01 de 00 03 cf 00 03 8f 00 07 87 80 0f 03 c0     ................
    13e3:	0e 03 c0 1e 01 e0 3c 01 f0 38 00 f0 78 00 78 f0     ......<..8..x.x.
    13f3:	00 7c 15 19 4b 17 01 00 f0 00 78 78 00 70 78 00     .|..K.....xx.px.
    1403:	f0 3c 01 e0 1e 01 e0 1e 03 c0 0f 03 80 0f 07 80     .<..............
    1413:	07 87 00 03 8f 00 03 ce 00 01 fc 00 01 fc 00 00     ................
    1423:	f8 00 00 78 00 00 70 00 00 70 00 00 70 00 00 70     ...x..p..p..p..p
    1433:	00 00 70 00 00 70 00 00 70 00 00 70 00 00 70 00     ..p..p..p..p..p.
    1443:	00 70 00 12 19 4b 16 02 00 7f ff c0 7f ff c0 7f     .p...K..........
    1453:	ff c0 00 03 c0 00 07 80 00 0f 80 00 1f 00 00 1e     ................
    1463:	00 00 3c 00 00 7c 00 00 f8 00 00 f0 00 01 e0 00     ..<..|..........
    1473:	03 e0 00 07 c0 00 0f 80 00 0f 00 00 1f 00 00 3e     ...............>
    1483:	00 00 7c 00 00 78 00 00 f0 00 00 ff ff c0 ff ff     ..|..x..........
    1493:	c0 ff ff c0 07 20 20 0e 04 f9 fe fe e0 e0 e0 e0     .....  .........
    14a3:	e0 e0 e0 e0 e0 e0 e0 e0 e0 e0 e0 e0 e0 e0 e0 e0     ................
    14b3:	e0 e0 e0 e0 e0 e0 e0 e0 fe fe 0a 1c 38 0d 02 fe     ............8...
    14c3:	c0 00 c0 00 e0 00 e0 00 60 00 60 00 70 00 30 00     ........`.`.p.0.
    14d3:	30 00 38 00 38 00 18 00 18 00 1c 00 0c 00 0c 00     0.8.8...........
    14e3:	0e 00 06 00 06 00 06 00 07 00 03 00 03 00 03 80     ................
    14f3:	01 80 01 80 01 80 01 c0 06 20 20 0e 04 f9 fc fc     .........  .....
    1503:	1c 1c 1c 1c 1c 1c 1c 1c 1c 1c 1c 1c 1c 1c 1c 1c     ................
    1513:	1c 1c 1c 1c 1c 1c 1c 1c 1c 1c 1c 1c fc fc 12 15     ................
    1523:	3f 22 08 00 00 c0 00 01 e0 00 01 e0 00 01 e0 00     ?"..............
    1533:	03 30 00 03 30 00 02 10 00 06 18 00 06 18 00 0c     .0..0...........
    1543:	0c 00 0c 0c 00 0c 0c 00 18 06 00 18 06 00 18 06     ................
    1553:	00 30 03 00 30 03 00 70 01 80 60 01 80 60 01 80     .0..0..p..`..`..
    1563:	c0 00 c0 11 02 06 11 00 fb ff ff 80 ff ff 80 06     ................
    1573:	06 06 08 00 15 e0 e0 70 38 18 0c 0f 12 24 13 02     .......p8....$..
    1583:	00 0f f0 3f fc 3c 3c 78 1e 70 0e 00 0e 00 0e 0f     ...?.<<x.p......
    1593:	fe 3f fe 7c 0e 70 0e e0 0e e0 1e e0 1e f0 3e 78     .?.|.p........>x
    15a3:	ee 3f ee 0f 8e 10 19 32 14 02 00 e0 00 e0 00 e0     .?.....2........
    15b3:	00 e0 00 e0 00 e0 00 e0 00 e3 f0 ef f8 ee 7c f8     ..............|.
    15c3:	1e f0 0e f0 0f e0 07 e0 07 e0 07 e0 07 e0 07 e0     ................
    15d3:	0f f0 0e f0 0e f8 1c fe 7c ef f8 e3 e0 0e 12 24     ........|......$
    15e3:	12 02 00 0f e0 3f f0 7c 78 70 3c 70 1c f0 1c e0     .....?.|xp<p....
    15f3:	00 e0 00 e0 00 e0 00 e0 00 e0 00 f0 1c 70 1c 70     .............p.p
    1603:	3c 3c 78 1f f0 0f e0 10 19 32 14 02 00 00 07 00     <<x......2......
    1613:	07 00 07 00 07 00 07 00 07 00 07 0f c7 1f f7 3c     ...............<
    1623:	7f 78 1f 70 1f 70 0f e0 0f e0 07 e0 07 e0 07 e0     .x.p.p..........
    1633:	07 e0 07 70 0f 70 0f 38 1f 3e 3f 0f f7 07 c7 10     ...p.p.8.>?.....
    1643:	12 24 13 02 00 07 e0 1f f8 3c 7c 78 1e 70 0e f0     .$.......<|x.p..
    1653:	0e e0 0e ff fe ff ff e0 00 e0 00 e0 00 70 0e 70     .............p.p
    1663:	0e 78 1e 3e 7c 1f f8 07 e0 0b 19 32 0c 01 00 07     .x.>|......2....
    1673:	e0 0f e0 1f 20 1c 00 1c 00 1c 00 1c 00 ff e0 ff     .... ...........
    1683:	e0 1c 00 1c 00 1c 00 1c 00 1c 00 1c 00 1c 00 1c     ................
    1693:	00 1c 00 1c 00 1c 00 1c 00 1c 00 1c 00 1c 00 1c     ................
    16a3:	00 10 19 32 14 02 f9 07 e7 1f f7 3e 7f 78 1f 70     ...2.......>.x.p
    16b3:	0f f0 0f e0 07 e0 07 e0 07 e0 07 e0 07 e0 07 f0     ................
    16c3:	0f 70 0f 78 1f 3e 7f 1f f7 0f c7 00 07 00 0f 70     .p.x.>.........p
    16d3:	0e 78 1e 3c 3c 1f f8 07 e0 0f 19 32 13 02 00 e0     .x.<<......2....
    16e3:	00 e0 00 e0 00 e0 00 e0 00 e0 00 e0 00 e3 f0 ef     ................
    16f3:	f8 fc 7c f8 1c f0 1e e0 0e e0 0e e0 0e e0 0e e0     ..|.............
    1703:	0e e0 0e e0 0e e0 0e e0 0e e0 0e e0 0e e0 0e e0     ................
    1713:	0e 03 19 19 07 02 00 e0 e0 e0 00 00 00 00 e0 e0     ................
    1723:	e0 e0 e0 e0 e0 e0 e0 e0 e0 e0 e0 e0 e0 e0 e0 e0     ................
    1733:	05 20 20 09 02 f9 38 38 38 00 00 00 00 38 38 38     .  ...888....888
    1743:	38 38 38 38 38 38 38 38 38 38 38 38 38 38 38 38     8888888888888888
    1753:	38 38 38 38 f0 e0 0e 19 32 11 02 00 e0 00 e0 00     8888....2.......
    1763:	e0 00 e0 00 e0 00 e0 00 e0 00 e0 78 e0 f0 e1 e0     ...........x....
    1773:	e1 c0 e3 c0 e7 80 ef 00 fe 00 fe 00 ef 00 e7 80     ................
    1783:	e7 80 e3 c0 e1 e0 e1 e0 e0 f0 e0 78 e0 3c 03 19     ...........x.<..
    1793:	19 08 02 00 e0 e0 e0 e0 e0 e0 e0 e0 e0 e0 e0 e0     ................
    17a3:	e0 e0 e0 e0 e0 e0 e0 e0 e0 e0 e0 e0 e0 1a 12 48     ...............H
    17b3:	1e 02 00 e3 e0 7c 00 ef f1 ff 00 fc 7b 8f 80 f8     .....|......{...
    17c3:	3f 03 80 f0 1e 03 c0 e0 1c 01 c0 e0 1c 01 c0 e0     ?...............
    17d3:	1c 01 c0 e0 1c 01 c0 e0 1c 01 c0 e0 1c 01 c0 e0     ................
    17e3:	1c 01 c0 e0 1c 01 c0 e0 1c 01 c0 e0 1c 01 c0 e0     ................
    17f3:	1c 01 c0 e0 1c 01 c0 e0 1c 01 c0 0f 12 24 13 02     .............$..
    1803:	00 e3 f0 ef f8 fc 7c f8 1e f0 1e e0 0e e0 0e e0     ......|.........
    1813:	0e e0 0e e0 0e e0 0e e0 0e e0 0e e0 0e e0 0e e0     ................
    1823:	0e e0 0e e0 0e 11 12 36 15 02 00 07 f0 00 1f fc     .......6........
    1833:	00 3e 3e 00 78 0f 00 70 07 00 f0 07 00 f0 07 80     .>>.x..p........
    1843:	e0 03 80 e0 03 80 e0 03 80 e0 03 80 f0 07 80 f0     ................
    1853:	07 80 70 07 00 78 0f 00 3e 3e 00 1f fc 00 07 f0     ..p..x..>>......
    1863:	00 10 19 32 14 02 f9 e3 f0 e7 f8 fe 3c f8 1e f0     ...2........<...
    1873:	0e f0 0f e0 07 e0 07 e0 07 e0 07 e0 07 e0 07 f0     ................
    1883:	0f f0 0e f8 1e fe 7c ef f8 e3 f0 e0 00 e0 00 e0     ......|.........
    1893:	00 e0 00 e0 00 e0 00 e0 00 10 19 32 15 02 f9 07     ...........2....
    18a3:	c7 1f f7 3e 3f 78 1f 70 0f f0 0f e0 07 e0 07 e0     ...>?x.p........
    18b3:	07 e0 07 e0 07 e0 07 f0 0f 70 0f 78 1f 3e 7f 1f     .........p.x.>..
    18c3:	f7 07 c7 00 07 00 07 00 07 00 07 00 07 00 07 00     ................
    18d3:	07 0a 12 24 0c 02 00 e7 c0 ef c0 fe 00 f8 00 f0     ...$............
    18e3:	00 e0 00 e0 00 e0 00 e0 00 e0 00 e0 00 e0 00 e0     ................
    18f3:	00 e0 00 e0 00 e0 00 e0 00 e0 00 0e 12 24 12 02     .............$..
    1903:	00 1f c0 7f f0 78 f8 f0 38 e0 38 e0 00 f0 00 7e     .....x..8.8....~
    1913:	00 3f e0 0f f8 00 fc 00 3c 00 1c e0 1c f0 3c 78     .?......<.....<x
    1923:	f8 3f f0 1f c0 0a 16 2c 0c 01 01 1c 00 1c 00 1c     .?.....,........
    1933:	00 1c 00 ff c0 ff c0 1c 00 1c 00 1c 00 1c 00 1c     ................
    1943:	00 1c 00 1c 00 1c 00 1c 00 1c 00 1c 00 1c 00 1c     ................
    1953:	00 1e 00 0f c0 07 c0 0f 12 24 13 02 00 e0 0e e0     .........$......
    1963:	0e e0 0e e0 0e e0 0e e0 0e e0 0e e0 0e e0 0e e0     ................
    1973:	0e e0 0e e0 0e e0 0e f0 1e f0 3e 7c 7e 3f ee 1f     ..........>|~?..
    1983:	8e 10 12 24 12 01 00 e0 07 f0 07 f0 0f 70 0e 78     ...$.........p.x
    1993:	0e 38 1e 38 1c 3c 1c 1c 38 1e 38 0e 38 0e 70 0f     .8.8.<..8.8.8.p.
    19a3:	70 07 e0 07 e0 03 e0 03 c0 03 c0 1a 12 48 1c 01     p............H..
    19b3:	00 e0 1e 01 c0 e0 3e 03 c0 e0 3f 03 80 70 3f 03     ......>...?..p?.
    19c3:	80 70 77 03 80 70 73 07 00 38 73 87 00 38 73 87     .pw..ps..8s..8s.
    19d3:	00 38 e3 8e 00 18 e1 ce 00 1c e1 ce 00 1d c1 ce     .8..............
    19e3:	00 1d c0 dc 00 0f c0 fc 00 0f 80 fc 00 0f 80 78     ...............x
    19f3:	00 07 80 78 00 07 80 78 00 11 12 36 13 01 00 70     ...x...x...6...p
    1a03:	07 00 78 0e 00 3c 1e 00 1e 1c 00 1e 38 00 0f 70     ..x..<......8..p
    1a13:	00 07 f0 00 03 e0 00 03 c0 00 03 e0 00 07 e0 00     ................
    1a23:	0f f0 00 0e 78 00 1c 3c 00 3c 1c 00 78 1e 00 70     ....x..<.<..x..p
    1a33:	0f 00 f0 07 80 10 19 32 12 01 f9 e0 07 f0 07 70     .......2.......p
    1a43:	0f 70 0e 78 0e 38 1e 3c 1c 1c 1c 1c 3c 1e 38 0e     .p.x.8.<....<.8.
    1a53:	38 0f 70 07 70 07 f0 07 e0 03 e0 03 e0 01 c0 01     8.p.p...........
    1a63:	c0 03 80 03 80 07 80 07 00 07 00 0f 00 0d 12 24     ...............$
    1a73:	11 02 00 7f f8 7f f8 00 78 00 70 00 f0 01 e0 03     ........x.p.....
    1a83:	c0 03 c0 07 80 0f 00 1f 00 1e 00 3c 00 78 00 78     ...........<.x.x
    1a93:	00 f0 00 ff f8 ff f8 0b 23 46 11 03 f8 01 e0 03     ........#F......
    1aa3:	e0 07 80 0f 00 0e 00 0e 00 0e 00 0e 00 0e 00 0e     ................
    1ab3:	00 0e 00 0e 00 0e 00 1e 00 1c 00 3c 00 f8 00 f0     ...........<....
    1ac3:	00 f8 00 3c 00 1c 00 1e 00 0e 00 0e 00 0e 00 0e     ...<............
    1ad3:	00 0e 00 0e 00 0e 00 0e 00 0e 00 07 00 07 80 03     ................
    1ae3:	e0 01 e0 02 25 25 0c 05 f7 c0 c0 c0 c0 c0 c0 c0     ....%%..........
    1af3:	c0 c0 c0 c0 c0 c0 c0 c0 c0 c0 c0 c0 c0 c0 c0 c0     ................
    1b03:	c0 c0 c0 c0 c0 c0 c0 c0 c0 c0 c0 c0 c0 c0 0b 23     ...............#
    1b13:	46 11 03 f8 f0 00 f8 00 3c 00 1c 00 0e 00 0e 00     F.......<.......
    1b23:	0e 00 0e 00 0e 00 0e 00 0e 00 0e 00 0e 00 0f 00     ................
    1b33:	07 00 07 80 03 e0 01 e0 03 e0 07 80 07 00 0f 00     ................
    1b43:	0e 00 0e 00 0e 00 0e 00 0e 00 0e 00 0e 00 0e 00     ................
    1b53:	0e 00 1c 00 3c 00 f8 00 f0 00 12 04 0c 12 00 07     ....<...........
    1b63:	1f 01 c0 3f e7 80 79 ff 00 e0 3e 00 ff ff ff ff     ...?..y...>.....
    1b73:	ff ff ff ff ff ff ff ff ff ff ff ff ff ff ff ff     ................
    1b83:	ff ff ff ff ff ff ff ff ff ff ff ff ff 00 00 00     ................
    1b93:	0a 00 00 03 19 19 0d 05 f9 e0 e0 e0 00 00 00 e0     ................
    1ba3:	e0 e0 e0 e0 e0 e0 e0 e0 e0 e0 e0 e0 e0 e0 e0 e0     ................
    1bb3:	e0 e0 0e 1a 34 13 02 fc 00 30 00 30 00 20 00 60     ....4....0.0. .`
    1bc3:	0f e0 3f f0 7c f8 70 dc 70 9c f1 9c e1 80 e1 80     ..?.|.p.p.......
    1bd3:	e3 00 e3 00 e3 00 e2 00 f6 1c 76 1c 7c 3c 3c 78     ..........v.|<<x
    1be3:	3f f0 0f c0 18 00 18 00 10 00 30 00 11 1a 4e 13     ?.........0...N.
    1bf3:	01 00 00 40 00 07 fc 00 0f fe 00 1e 0f 00 3c 07     ...@..........<.
    1c03:	80 38 03 80 38 00 00 38 00 00 38 00 00 38 00 00     .8..8..8..8..8..
    1c13:	ff e0 00 ff e0 00 38 00 00 38 00 00 38 00 00 38     ......8..8..8..8
    1c23:	00 00 38 00 00 38 00 00 38 00 00 38 00 00 38 00     ..8..8..8..8..8.
    1c33:	00 38 00 00 38 00 00 38 00 00 ff ff 00 ff ff 00     .8..8..8........
    1c43:	12 13 39 14 01 06 40 00 80 e0 01 c0 71 e3 80 3f     ..9...@.....q..?
    1c53:	ff 00 1f 3e 00 1c 0e 00 18 06 00 30 03 00 30 03     ...>.......0..0.
    1c63:	00 30 03 00 30 03 00 30 03 00 18 06 00 1c 0e 00     .0..0..0........
    1c73:	1f 3e 00 37 fb 00 71 e1 80 e0 01 c0 40 00 80 12     .>.7..q.....@...
    1c83:	19 4b 14 01 00 f0 01 c0 70 03 c0 78 03 80 38 07     .K......p..x..8.
    1c93:	80 3c 07 00 1c 0f 00 1e 0e 00 fe 0f c0 ff 1f c0     .<..............
    1ca3:	07 1c 00 07 b8 00 03 b8 00 03 f0 00 ff ff c0 ff     ................
    1cb3:	ff c0 00 e0 00 00 e0 00 00 e0 00 00 e0 00 00 e0     ................
    1cc3:	00 00 e0 00 00 e0 00 00 e0 00 00 e0 00 00 e0 00     ................
    1cd3:	02 21 21 0c 05 f9 c0 c0 c0 c0 c0 c0 c0 c0 c0 c0     .!!.............
    1ce3:	c0 c0 c0 c0 00 00 00 00 00 c0 c0 c0 c0 c0 c0 c0     ................
    1cf3:	c0 c0 c0 c0 c0 c0 c0 0c 1f 3e 10 02 fb 1f e0 3f     .........>.....?
    1d03:	e0 38 20 70 00 70 00 70 00 78 00 7c 00 3e 00 1f     .8 p.p.p.x.|.>..
    1d13:	80 0f c0 3f e0 78 f0 f0 70 e0 70 e0 70 e0 f0 f1     ...?.x..p.p.p...
    1d23:	e0 7f c0 3f 80 1f 80 07 e0 01 e0 00 f0 00 70 00     ...?..........p.
    1d33:	70 00 70 00 f0 41 e0 7f c0 3f 80 0a 03 06 0a 00     p.p..A...?......
    1d43:	16 e1 c0 e1 c0 e1 c0 1a 19 64 1e 02 01 00 ff c0     .........d......
    1d53:	00 03 ff f0 00 07 80 78 00 0e 00 1c 00 1c 7f 0e     .......x........
    1d63:	00 39 ff 87 00 73 e3 c3 00 63 81 e1 80 67 80 e1     .9...s...c...g..
    1d73:	80 c7 00 00 c0 c7 00 00 c0 c7 00 00 c0 c7 00 00     ................
    1d83:	c0 c7 00 00 c0 c7 00 00 c0 c7 00 e0 80 63 81 e1     .............c..
    1d93:	80 63 c3 c1 80 31 ff 83 00 30 7f 07 00 18 00 0e     .c...1...0......
    1da3:	00 0e 00 1c 00 07 80 78 00 01 ff e0 00 00 7f 80     .......x........
    1db3:	00 0c 11 22 0e 01 08 1f 80 3f c0 78 e0 60 60 00     ...".....?.x.``.
    1dc3:	60 07 e0 3f e0 38 60 60 60 60 60 60 e0 71 e0 3f     `..?.8``````.q.?
    1dd3:	60 1e 60 00 00 00 00 ff f0 0d 0e 1c 13 03 02 0e     `.`.............
    1de3:	38 1c 38 38 70 38 e0 70 e0 71 c0 e3 c0 e3 c0 71     8.88p8.p.q.....q
    1df3:	c0 70 e0 38 e0 18 70 1c 38 0e 38 12 08 18 15 02     .p.8..p.8.8.....
    1e03:	07 ff ff c0 ff ff c0 00 00 c0 00 00 c0 00 00 c0     ................
    1e13:	00 00 c0 00 00 c0 00 00 c0 ff 1a 19 64 1e 02 01     ............d...
    1e23:	00 ff c0 00 03 ff f0 00 07 80 78 00 0e ff 9c 00     ..........x.....
    1e33:	18 ff ce 00 30 c1 e7 00 70 c0 63 00 60 c0 61 80     ....0...p.c.`.a.
    1e43:	60 c0 61 80 c0 c0 c0 c0 c0 ff 80 c0 c0 ff 80 c0     `.a.............
    1e53:	c0 c1 c0 c0 c0 c0 c0 c0 c0 c0 c0 c0 c0 c0 e1 80     ................
    1e63:	60 c0 61 80 60 c0 61 80 30 c0 63 00 38 00 07 00     `.a.`.a.0.c.8...
    1e73:	1c 00 0e 00 0f 00 3c 00 07 c1 f8 00 01 ff e0 00     ......<.........
    1e83:	00 7f 80 00 0a 02 04 0a 00 16 ff c0 ff c0 07 07     ................
    1e93:	07 0b 02 12 38 c4 82 82 82 c4 78 14 15 3f 22 07     ....8.....x..?".
    1ea3:	00 00 60 00 00 60 00 00 60 00 00 60 00 00 60 00     ..`..`..`..`..`.
    1eb3:	00 60 00 ff ff f0 ff ff f0 00 60 00 00 60 00 00     .`........`..`..
    1ec3:	60 00 00 60 00 00 60 00 00 60 00 00 60 00 00 00     `..`..`..`..`...
	...
    1edb:	00 00 ff ff f0 ff ff f0 0a 0d 1a 0c 01 0d 3f 80     ..............?.
    1eeb:	7f 80 61 c0 e1 c0 01 c0 03 80 07 80 0e 00 1c 00     ..a.............
    1efb:	38 00 f0 00 ff c0 ff c0 0a 0e 1c 0d 02 0c 7f 80     8...............
    1f0b:	ff c0 c1 c0 01 c0 07 80 0e 00 0f 80 03 c0 00 c0     ................
    1f1b:	c0 c0 c0 c0 e3 80 7f 80 3e 00 06 06 06 08 02 15     ........>.......
    1f2b:	1c 3c 38 70 60 c0 ff 10 1f 3e 14 02 fa 07 ff 1f     .<8p`....>......
    1f3b:	8c 3f 8c 7f 8c ff 8c ff 8c ff 8c ff 8c ff 8c 7f     .?..............
    1f4b:	8c 7f 8c 1f 8c 07 8c 01 8c 01 8c 01 8c 01 8c 01     ................
    1f5b:	8c 01 8c 01 8c 01 8c 01 8c 01 8c 01 8c 01 8c 01     ................
    1f6b:	8c 01 8c 01 8c 01 8c 01 8c 01 8c 03 04 04 09 03     ................
    1f7b:	0a e0 e0 e0 e0 08 09 09 09 02 f7 20 20 3c 3e 07     ...........  <>.
    1f8b:	03 87 ff fc 05 0d 0d 0a 02 0c 38 78 f8 98 18 18     ..........8x....
    1f9b:	18 18 18 18 18 18 18 0c 10 20 0e 01 09 1f 80 3f     ......... .....?
    1fab:	c0 70 e0 e0 60 c0 70 c0 30 c0 30 c0 30 c0 70 e0     .p..`.p.0.0.0.p.
    1fbb:	70 70 e0 3f c0 1f 80 00 00 00 00 ff f0 0d 0e 1c     pp.?............
    1fcb:	13 03 02 e3 80 e1 c0 70 c0 38 e0 38 70 1c 70 1c     .......p.8.8p.p.
    1fdb:	38 1e 38 1c 70 38 70 38 e0 70 c0 e1 c0 e3 80 17     8.8.p8p8.p......
    1feb:	1b 51 1b 02 00 38 00 c0 78 01 c0 f8 01 80 d8 03     .Q...8..x.......
    1ffb:	80 18 03 00 18 07 00 18 06 00 18 0e 00 18 0c 00     ................
    200b:	18 18 00 18 18 00 18 30 00 18 70 00 18 60 70 00     .......0..p..`p.
    201b:	e0 70 00 c0 f0 01 c1 b0 01 81 30 03 83 30 03 06     .p........0..0..
    202b:	30 07 0c 30 06 0f fe 0e 0f fe 0c 00 30 18 00 30     0..0........0..0
    203b:	18 00 30 30 00 30 17 1b 51 1b 02 00 38 00 e0 78     ..00.0..Q...8..x
    204b:	01 c0 f8 01 80 d8 03 80 18 03 00 18 07 00 18 06     ................
    205b:	00 18 0e 00 18 0c 00 18 1c 00 18 18 00 18 38 00     ..............8.
    206b:	18 30 00 18 70 f8 00 e3 fc 00 c3 8e 01 c7 06 01     .0..p...........
    207b:	80 06 03 80 0e 03 00 0c 07 00 38 06 00 70 0e 00     ..........8..p..
    208b:	e0 0c 03 c0 1c 07 80 18 07 fe 30 07 fe 18 1a 4e     ..........0....N
    209b:	1b 02 00 00 00 18 7f 80 38 ff c0 70 c1 c0 60 03     ........8..p..`.
    20ab:	80 e0 0e 00 c0 0f 81 c0 03 c1 80 00 c3 80 c0 c7     ................
    20bb:	00 c0 c6 00 e3 8e 00 7f 8c 1c 3e 1c 3c 00 18 3c     ..........>.<..<
    20cb:	00 30 6c 00 70 cc 00 61 cc 00 e3 8c 00 c3 0c 01     .0l.p..a........
    20db:	c7 ff 01 87 ff 03 00 0c 07 00 0c 06 00 0c 0e 00     ................
    20eb:	0c 0f 19 32 12 02 f9 01 c0 01 c0 01 c0 00 00 00     ...2............
    20fb:	00 00 00 01 c0 01 c0 01 c0 01 c0 03 c0 07 80 0f     ................
    210b:	00 3e 00 7c 00 78 00 f0 00 e0 00 e0 00 e0 08 f0     .>.|.x..........
    211b:	0e 78 3c 3f fc 1f f8 07 e0 18 23 69 1a 01 00 01     .x<?......#i....
    212b:	c0 00 01 e0 00 00 e0 00 00 70 00 00 30 00 00 18     .........p..0...
	...
    2147:	00 00 3c 00 00 7c 00 00 7e 00 00 fe 00 00 ee 00     ..<..|..~.......
    2157:	00 ef 00 01 e7 00 01 c7 80 03 c3 80 03 83 c0 07     ................
    2167:	83 c0 07 01 c0 07 01 e0 0f 00 e0 0e 00 f0 1f ff     ................
    2177:	f0 1f ff f0 1f ff f8 3c 00 38 38 00 3c 78 00 1c     .......<.88.<x..
    2187:	70 00 1e 70 00 1e f0 00 0e e0 00 0f 18 23 69 1a     p..p.........#i.
    2197:	01 00 00 07 80 00 07 00 00 0e 00 00 0c 00 00 1c     ................
    21a7:	00 00 18 00 00 00 00 00 00 00 00 00 00 00 00 00     ................
    21b7:	00 3c 00 00 7c 00 00 7e 00 00 fe 00 00 ee 00 00     .<..|..~........
    21c7:	ef 00 01 e7 00 01 c7 80 03 c3 80 03 83 c0 07 83     ................
    21d7:	c0 07 01 c0 07 01 e0 0f 00 e0 0e 00 f0 1f ff f0     ................
    21e7:	1f ff f0 1f ff f8 3c 00 38 38 00 3c 78 00 1c 70     ......<.88.<x..p
    21f7:	00 1e 70 00 1e f0 00 0e e0 00 0f 18 23 69 1a 01     ..p.........#i..
    2207:	00 00 3c 00 00 7c 00 00 6e 00 00 e6 00 00 c3 00     ..<..|..n.......
    2217:	01 83 00 00 00 00 00 00 00 00 00 00 00 00 00 00     ................
    2227:	3c 00 00 7c 00 00 7e 00 00 fe 00 00 ee 00 00 ef     <..|..~.........
    2237:	00 01 e7 00 01 c7 80 03 c3 80 03 83 c0 07 83 c0     ................
    2247:	07 01 c0 07 01 e0 0f 00 e0 0e 00 f0 1f ff f0 1f     ................
    2257:	ff f0 1f ff f8 3c 00 38 38 00 3c 78 00 1c 70 00     .....<.88.<x..p.
    2267:	1e 70 00 1e f0 00 0e e0 00 0f 18 21 63 1a 01 00     .p.........!c...
    2277:	00 f1 80 01 ff 00 01 9f 00 00 00 00 00 00 00 00     ................
	...
    228f:	00 3c 00 00 7c 00 00 7e 00 00 fe 00 00 ee 00 00     .<..|..~........
    229f:	ef 00 01 e7 00 01 c7 80 03 c3 80 03 83 c0 07 83     ................
    22af:	c0 07 01 c0 07 01 e0 0f 00 e0 0e 00 f0 1f ff f0     ................
    22bf:	1f ff f0 1f ff f8 3c 00 38 38 00 3c 78 00 1c 70     ......<.88.<x..p
    22cf:	00 1e 70 00 1e f0 00 0e e0 00 0f 19 21 84 19 00     ..p.........!...
    22df:	00 00 e1 c0 00 00 e1 c0 00 00 e1 c0 00 00 00 00     ................
	...
    22ff:	00 00 3e 00 00 00 3e 00 00 00 3e 00 00 00 7f 00     ..>...>...>.....
    230f:	00 00 77 00 00 00 f7 80 00 00 e3 80 00 00 e3 c0     ..w.............
    231f:	00 01 e3 c0 00 01 c1 c0 00 03 c1 e0 00 03 80 e0     ................
    232f:	00 07 80 f0 00 07 00 70 00 07 00 70 00 0f ff f8     .......p...p....
    233f:	00 0f ff f8 00 1f ff fc 00 1c 00 1c 00 1c 00 1e     ................
    234f:	00 3c 00 0e 00 38 00 0e 00 78 00 0f 00 70 00 07     .<...8...x...p..
    235f:	00 f0 00 07 80 18 24 6c 19 01 00 00 38 00 00 c4     ......$l....8...
    236f:	00 00 82 00 00 82 00 00 82 00 00 c4 00 00 7c 00     ..............|.
	...
    238b:	00 3c 00 00 7c 00 00 7e 00 00 fe 00 00 ee 00 00     .<..|..~........
    239b:	ef 00 01 e7 00 01 c7 80 03 c3 80 03 83 80 07 83     ................
    23ab:	c0 07 81 c0 07 01 e0 0f 00 e0 0e 00 f0 1f ff f0     ................
    23bb:	1f ff f0 1f ff f8 3c 00 38 38 00 3c 78 00 3c 78     ......<.88.<x.<x
    23cb:	00 1c 70 00 1e f0 00 0e e0 00 0f 1f 19 64 22 01     ..p..........d".
    23db:	00 00 07 ff fc 00 0f ff fc 00 0f ff fc 00 1f c0     ................
    23eb:	00 00 1d c0 00 00 3d c0 00 00 39 c0 00 00 79 c0     ......=...9...y.
    23fb:	00 00 f1 c0 00 00 f1 c0 00 01 e1 c0 00 01 e1 ff     ................
    240b:	fc 03 c1 ff fc 03 c1 ff fc 07 81 c0 00 07 ff c0     ................
    241b:	00 0f ff c0 00 0f ff c0 00 1e 01 c0 00 1c 01 c0     ................
    242b:	00 3c 01 c0 00 38 01 c0 00 78 01 ff fe 70 01 ff     .<...8...x...p..
    243b:	fe f0 01 ff fe 13 21 63 17 02 f9 03 fe 00 0f ff     ......!c........
    244b:	80 1e 03 c0 3c 01 c0 38 00 e0 70 00 e0 70 00 00     ....<..8..p..p..
    245b:	70 00 00 e0 00 00 e0 00 00 e0 00 00 e0 00 00 e0     p...............
    246b:	00 00 e0 00 00 e0 00 00 e0 00 00 e0 00 00 70 00     ..............p.
    247b:	00 70 00 e0 70 00 e0 38 01 e0 3c 01 c0 1f 07 80     .p..p..8..<.....
    248b:	0f ff 00 03 fc 00 00 40 00 00 78 00 00 7c 00 00     .......@..x..|..
    249b:	1e 00 00 06 00 00 06 00 01 fe 00 01 fc 00 10 23     ...............#
    24ab:	46 15 03 00 1c 00 0e 00 07 00 07 00 03 80 01 80     F...............
	...
    24c3:	ff fe ff fe ff fe e0 00 e0 00 e0 00 e0 00 e0 00     ................
    24d3:	e0 00 e0 00 e0 00 ff fe ff fe ff fe e0 00 e0 00     ................
    24e3:	e0 00 e0 00 e0 00 e0 00 e0 00 e0 00 ff ff ff ff     ................
    24f3:	ff ff 10 23 46 15 03 00 00 70 00 f0 00 e0 01 c0     ...#F....p......
    2503:	01 80 03 00 00 00 00 00 00 00 00 00 ff fe ff fe     ................
    2513:	ff fe e0 00 e0 00 e0 00 e0 00 e0 00 e0 00 e0 00     ................
    2523:	e0 00 ff fe ff fe ff fe e0 00 e0 00 e0 00 e0 00     ................
    2533:	e0 00 e0 00 e0 00 e0 00 ff ff ff ff ff ff 10 23     ...............#
    2543:	46 15 03 00 07 c0 07 c0 0e e0 0c 60 1c 70 18 30     F..........`.p.0
	...
    255b:	ff fe ff fe ff fe e0 00 e0 00 e0 00 e0 00 e0 00     ................
    256b:	e0 00 e0 00 e0 00 ff fe ff fe ff fe e0 00 e0 00     ................
    257b:	e0 00 e0 00 e0 00 e0 00 e0 00 e0 00 ff ff ff ff     ................
    258b:	ff ff 10 21 42 15 03 00 1c 70 1c 70 1c 70 00 00     ...!B....p.p.p..
	...
    25a3:	ff fe ff fe ff fe e0 00 e0 00 e0 00 e0 00 e0 00     ................
    25b3:	e0 00 e0 00 e0 00 ff fe ff fe ff fe e0 00 e0 00     ................
    25c3:	e0 00 e0 00 e0 00 e0 00 e0 00 e0 00 ff ff ff ff     ................
    25d3:	ff ff 06 23 23 09 00 00 f0 70 38 18 1c 0c 00 00     ...##....p8.....
    25e3:	00 00 1c 1c 1c 1c 1c 1c 1c 1c 1c 1c 1c 1c 1c 1c     ................
    25f3:	1c 1c 1c 1c 1c 1c 1c 1c 1c 1c 1c 06 23 23 09 03     ............##..
    2603:	00 1c 38 30 70 e0 c0 00 00 00 00 e0 e0 e0 e0 e0     ..80p...........
    2613:	e0 e0 e0 e0 e0 e0 e0 e0 e0 e0 e0 e0 e0 e0 e0 e0     ................
    2623:	e0 e0 e0 e0 09 23 46 09 00 00 1e 00 3e 00 37 00     .....#F.....>.7.
    2633:	73 00 63 80 c1 80 00 00 00 00 00 00 00 00 1c 00     s.c.............
    2643:	1c 00 1c 00 1c 00 1c 00 1c 00 1c 00 1c 00 1c 00     ................
    2653:	1c 00 1c 00 1c 00 1c 00 1c 00 1c 00 1c 00 1c 00     ................
    2663:	1c 00 1c 00 1c 00 1c 00 1c 00 1c 00 1c 00 1c 00     ................
    2673:	0a 21 42 0a 00 00 e1 c0 e1 c0 e1 c0 00 00 00 00     .!B.............
    2683:	00 00 00 00 00 00 1c 00 1c 00 1c 00 1c 00 1c 00     ................
    2693:	1c 00 1c 00 1c 00 1c 00 1c 00 1c 00 1c 00 1c 00     ................
    26a3:	1c 00 1c 00 1c 00 1c 00 1c 00 1c 00 1c 00 1c 00     ................
    26b3:	1c 00 1c 00 1c 00 1c 00 16 19 4b 18 00 00 1f fc     ..........K.....
    26c3:	00 1f ff 80 1f ff c0 1c 07 e0 1c 00 f0 1c 00 78     ...............x
    26d3:	1c 00 78 1c 00 3c 1c 00 3c 1c 00 1c 1c 00 1c ff     ..x..<..<.......
    26e3:	f0 1c ff f0 1c ff f0 1c 1c 00 1c 1c 00 1c 1c 00     ................
    26f3:	3c 1c 00 38 1c 00 78 1c 00 78 1c 00 f0 1c 07 e0     <..8..x..x......
    2703:	1f ff c0 1f ff 80 1f fc 00 13 21 63 19 03 00 03     ..........!c....
    2713:	cc 00 07 fc 00 0e f8 00 00 00 00 00 00 00 00 00     ................
    2723:	00 00 00 00 00 00 00 f8 00 e0 f8 00 e0 fc 00 e0     ................
    2733:	fe 00 e0 fe 00 e0 ef 00 e0 ef 00 e0 e7 80 e0 e7     ................
    2743:	80 e0 e3 c0 e0 e3 c0 e0 e1 e0 e0 e0 e0 e0 e0 f0     ................
    2753:	e0 e0 78 e0 e0 78 e0 e0 3c e0 e0 3c e0 e0 1e e0     ..x..x..<..<....
    2763:	e0 1e e0 e0 0f e0 e0 0f e0 e0 07 e0 e0 03 e0 e0     ................
    2773:	03 e0 16 24 6c 1a 02 00 03 c0 00 01 c0 00 00 e0     ...$l...........
    2783:	00 00 60 00 00 70 00 00 38 00 00 18 00 00 00 00     ..`..p..8.......
	...
    279b:	00 03 ff 00 0f ff c0 1f ff e0 3e 01 f0 38 00 70     ..........>..8.p
    27ab:	78 00 78 70 00 38 f0 00 38 f0 00 1c e0 00 1c e0     x.xp.8..8.......
    27bb:	00 1c e0 00 1c e0 00 1c e0 00 1c e0 00 1c f0 00     ................
    27cb:	3c 70 00 38 70 00 38 78 00 78 38 00 70 3c 00 f0     <p.8p.8x.x8.p<..
    27db:	1f 03 e0 0f ff c0 07 ff 80 00 fc 00 16 24 6c 1a     .............$l.
    27eb:	02 00 00 0f 00 00 0e 00 00 1c 00 00 18 00 00 38     ...............8
    27fb:	00 00 70 00 00 60 00 00 00 00 00 00 00 00 00 00     ..p..`..........
    280b:	00 00 00 03 ff 00 0f ff c0 1f ff e0 3e 01 f0 38     ............>..8
    281b:	00 70 78 00 78 70 00 38 f0 00 38 f0 00 1c e0 00     .px.xp.8..8.....
    282b:	1c e0 00 1c e0 00 1c e0 00 1c e0 00 1c e0 00 1c     ................
    283b:	f0 00 3c 70 00 38 70 00 38 78 00 78 38 00 70 3c     ..<p.8p.8x.x8.p<
    284b:	00 f0 1f 03 e0 0f ff c0 07 ff 80 00 fc 00 16 24     ...............$
    285b:	6c 1a 02 00 00 78 00 00 78 00 00 fc 00 00 ce 00     l....x..x.......
    286b:	01 ce 00 03 87 00 03 03 00 00 00 00 00 00 00 00     ................
    287b:	00 00 00 00 00 03 ff 00 0f ff c0 1f ff e0 3e 01     ..............>.
    288b:	f0 38 00 70 78 00 78 70 00 38 f0 00 38 f0 00 1c     .8.px.xp.8..8...
    289b:	e0 00 1c e0 00 1c e0 00 1c e0 00 1c e0 00 1c e0     ................
    28ab:	00 1c f0 00 3c 70 00 38 70 00 38 78 00 78 38 00     ....<p.8p.8x.x8.
    28bb:	70 3c 00 f0 1f 03 e0 0f ff c0 07 ff 80 00 fc 00     p<..............
    28cb:	16 21 63 1a 02 00 01 f3 00 03 ff 00 03 1e 00 00     .!c.............
	...
    28e7:	00 00 03 ff 00 0f ff c0 1f ff e0 3e 01 f0 38 00     ...........>..8.
    28f7:	70 78 00 78 70 00 38 f0 00 38 f0 00 1c e0 00 1c     px.xp.8..8......
    2907:	e0 00 1c e0 00 1c e0 00 1c e0 00 1c e0 00 1c f0     ................
    2917:	00 3c 70 00 38 70 00 38 78 00 78 38 00 70 3c 00     .<p.8p.8x.x8.p<.
    2927:	f0 1f 03 e0 0f ff c0 07 ff 80 00 fc 00 16 21 63     ..............!c
    2937:	1a 02 00 01 c3 80 01 c3 80 01 c3 80 00 00 00 00     ................
	...
    294f:	00 00 00 03 ff 00 0f ff c0 1f ff e0 3e 01 f0 38     ............>..8
    295f:	00 70 78 00 78 70 00 38 f0 00 38 f0 00 1c e0 00     .px.xp.8..8.....
    296f:	1c e0 00 1c e0 00 1c e0 00 1c e0 00 1c e0 00 1c     ................
    297f:	f0 00 3c 70 00 38 70 00 38 78 00 78 38 00 70 3c     ..<p.8p.8x.x8.p<
    298f:	00 f0 1f 03 e0 0f ff c0 07 ff 80 00 fc 00 12 13     ................
    299f:	39 22 08 01 40 00 80 e0 01 c0 70 03 80 38 07 00     9"..@.....p..8..
    29af:	18 06 00 0c 0c 00 06 18 00 03 30 00 01 e0 00 00     ..........0.....
    29bf:	c0 00 01 e0 00 03 30 00 06 18 00 0c 0c 00 18 06     ......0.........
    29cf:	00 30 03 00 60 01 80 e0 01 c0 40 00 80 16 1f 5d     .0..`.....@....]
    29df:	1a 02 fd 00 00 18 00 00 3c 00 00 38 03 ff 78 0f     ........<..8..x.
    29ef:	ff f0 1f ff f0 3e 01 f0 38 01 f0 78 03 f8 70 07     .....>..8..x..p.
    29ff:	b8 f0 0f 3c f0 0f 3c e0 1e 1c e0 3c 1c e0 3c 1c     ...<..<....<..<.
    2a0f:	e0 78 1c e0 f0 1c e0 e0 1c f1 e0 3c 73 c0 38 73     .x.........<s.8s
    2a1f:	80 38 7f 80 78 3f 00 70 3e 00 f0 1f 03 e0 3f ff     .8..x?.p>.....?.
    2a2f:	c0 3f ff 80 79 fc 00 f0 00 00 e0 00 00 20 00 00     .?..y........ ..
    2a3f:	13 24 6c 19 03 00 07 00 00 03 80 00 03 80 00 01     .$l.............
    2a4f:	c0 00 00 e0 00 00 60 00 00 30 00 00 00 00 00 00     ......`..0......
    2a5f:	00 00 00 00 00 00 00 e0 00 e0 e0 00 e0 e0 00 e0     ................
    2a6f:	e0 00 e0 e0 00 e0 e0 00 e0 e0 00 e0 e0 00 e0 e0     ................
    2a7f:	00 e0 e0 00 e0 e0 00 e0 e0 00 e0 e0 00 e0 e0 00     ................
    2a8f:	e0 e0 00 e0 e0 00 e0 e0 00 e0 f0 00 e0 f0 01 e0     ................
    2a9f:	70 01 c0 78 03 c0 3e 07 c0 3f ff 80 1f ff 00 03     p..x..>..?......
    2aaf:	f8 00 13 24 6c 19 03 00 00 1c 00 00 3c 00 00 38     ...$l.......<..8
    2abf:	00 00 70 00 00 60 00 00 c0 00 01 c0 00 00 00 00     ..p..`..........
	...
    2ad7:	00 e0 00 e0 e0 00 e0 e0 00 e0 e0 00 e0 e0 00 e0     ................
    2ae7:	e0 00 e0 e0 00 e0 e0 00 e0 e0 00 e0 e0 00 e0 e0     ................
    2af7:	00 e0 e0 00 e0 e0 00 e0 e0 00 e0 e0 00 e0 e0 00     ................
    2b07:	e0 e0 00 e0 f0 00 e0 f0 01 e0 70 01 c0 78 03 c0     ..........p..x..
    2b17:	3e 07 c0 3f ff 80 1f ff 00 03 f8 00 13 24 6c 19     >..?.........$l.
    2b27:	03 00 00 e0 00 01 f0 00 01 f0 00 03 b8 00 03 1c     ................
    2b37:	00 06 0c 00 06 0e 00 00 00 00 00 00 00 00 00 00     ................
    2b47:	00 00 00 e0 00 e0 e0 00 e0 e0 00 e0 e0 00 e0 e0     ................
    2b57:	00 e0 e0 00 e0 e0 00 e0 e0 00 e0 e0 00 e0 e0 00     ................
    2b67:	e0 e0 00 e0 e0 00 e0 e0 00 e0 e0 00 e0 e0 00 e0     ................
    2b77:	e0 00 e0 e0 00 e0 f0 00 e0 f0 01 e0 70 01 c0 78     ............p..x
    2b87:	03 c0 3e 07 c0 3f ff 80 1f ff 00 03 f8 00 13 21     ..>..?.........!
    2b97:	63 19 03 00 07 0e 00 07 0e 00 07 0e 00 00 00 00     c...............
	...
    2bb3:	e0 00 e0 e0 00 e0 e0 00 e0 e0 00 e0 e0 00 e0 e0     ................
    2bc3:	00 e0 e0 00 e0 e0 00 e0 e0 00 e0 e0 00 e0 e0 00     ................
    2bd3:	e0 e0 00 e0 e0 00 e0 e0 00 e0 e0 00 e0 e0 00 e0     ................
    2be3:	e0 00 e0 f0 00 e0 f0 01 e0 70 01 c0 78 03 c0 3e     .........p..x..>
    2bf3:	07 c0 3f ff 80 1f ff 00 03 f8 00 15 23 69 17 01     ..?.........#i..
    2c03:	00 00 0e 00 00 1e 00 00 1c 00 00 38 00 00 30 00     ...........8..0.
    2c13:	00 60 00 00 00 00 00 00 00 00 00 00 00 00 00 f0     .`..............
    2c23:	00 78 78 00 70 78 00 f0 3c 01 e0 1e 01 e0 1e 03     .xx.px..<.......
    2c33:	c0 0f 03 80 0f 07 80 07 87 00 03 8f 00 03 ce 00     ................
    2c43:	01 fc 00 01 fc 00 00 f8 00 00 78 00 00 70 00 00     ..........x..p..
    2c53:	70 00 00 70 00 00 70 00 00 70 00 00 70 00 00 70     p..p..p..p..p..p
    2c63:	00 00 70 00 00 70 00 00 70 00 10 19 32 15 03 00     ..p..p..p...2...
    2c73:	e0 00 e0 00 e0 00 e0 00 ff e0 ff fc ff fe e0 3e     ...............>
    2c83:	e0 0f e0 07 e0 07 e0 07 e0 07 e0 07 e0 0f e0 3e     ...............>
    2c93:	ff fe ff fc ff e0 e0 00 e0 00 e0 00 e0 00 e0 00     ................
    2ca3:	e0 00 11 19 4b 13 02 00 07 e0 00 1f f8 00 7e 7c     ....K.........~|
    2cb3:	00 70 3c 00 f0 1c 00 e0 1c 00 e0 1c 00 e0 38 00     .p<...........8.
    2cc3:	e0 f8 00 e1 e0 00 e1 c0 00 e1 c0 00 e1 e0 00 e1     ................
    2cd3:	f0 00 e0 fc 00 e0 3f 00 e0 0f 00 e0 07 80 e0 03     ......?.........
    2ce3:	80 e0 03 80 e7 03 80 e3 83 80 e3 e7 80 e1 ff 00     ................
    2cf3:	e0 7c 00 0f 1b 36 13 02 00 0e 00 07 00 03 80 03     .|...6..........
    2d03:	80 01 c0 00 c0 00 00 00 00 00 00 0f f0 3f fc 3c     .............?.<
    2d13:	3c 78 1e 70 0e 00 0e 00 0e 0f fe 3f fe 7c 0e 70     <x.p.......?.|.p
    2d23:	0e e0 0e e0 1e e0 1e f0 3e 78 ee 3f ee 0f 8e 0f     ........>x.?....
    2d33:	1c 38 13 02 00 00 70 00 e0 00 e0 01 c0 03 80 03     .8....p.........
    2d43:	00 06 00 00 00 00 00 00 00 0f f0 3f fc 3c 3c 78     ...........?.<<x
    2d53:	1e 70 0e 00 0e 00 0e 0f fe 3f fe 7c 0e 70 0e e0     .p.......?.|.p..
    2d63:	0e e0 1e e0 1e f0 3e 78 ee 3f ee 0f 8e 0f 1c 38     ......>x.?.....8
    2d73:	13 02 00 03 c0 07 c0 07 e0 0e e0 0c 70 1c 30 18     ............p.0.
    2d83:	18 00 00 00 00 00 00 0f f0 3f fc 3c 3c 78 1e 70     .........?.<<x.p
    2d93:	0e 00 0e 00 0e 0f fe 3f fe 7c 0e 70 0e e0 0e e0     .......?.|.p....
    2da3:	1e e0 1e f0 3e 78 ee 3f ee 0f 8e 0f 19 32 13 02     ....>x.?.....2..
    2db3:	00 0f 98 1f f0 19 e0 00 00 00 00 00 00 00 00 0f     ................
    2dc3:	f0 3f fc 3c 3c 78 1e 70 0e 00 0e 00 0e 0f fe 3f     .?.<<x.p.......?
    2dd3:	fe 7c 0e 70 0e e0 0e e0 1e e0 1e f0 3e 78 ee 3f     .|.p........>x.?
    2de3:	ee 0f 8e 0f 19 32 13 02 00 1c 38 1c 38 1c 38 00     .....2....8.8.8.
    2df3:	00 00 00 00 00 00 00 0f f0 3f fc 3c 3c 78 1e 70     .........?.<<x.p
    2e03:	0e 00 0e 00 0e 0f fe 3f fe 7c 0e 70 0e e0 0e e0     .......?.|.p....
    2e13:	1e e0 1e f0 3e 78 ee 3f ee 0f 8e 0f 1d 3a 13 02     ....>x.?.....:..
    2e23:	00 03 80 0c 40 08 20 08 20 08 20 0c 40 07 c0 00     ....@. . . .@...
    2e33:	00 00 00 00 00 00 00 0f f0 3f fc 3c 7c 78 1e 70     .........?.<|x.p
    2e43:	1e 00 1e 00 1e 0f fe 3f fe 7c 0e 70 0e e0 0e e0     .......?.|.p....
    2e53:	1e e0 1e f0 3e 78 ee 3f ee 0f 8e 1b 12 48 1f 02     ....>x.?.....H..
    2e63:	00 0f e0 7e 00 3f f1 ff 00 7c 79 c7 80 70 1f 81     ...~.?...|y..p..
    2e73:	c0 70 0f 01 c0 00 0f 00 e0 00 0e 00 e0 0f ff ff     .p..............
    2e83:	e0 3f ff ff e0 7c 0e 00 00 f0 0e 00 00 e0 0e 00     .?...|..........
    2e93:	00 e0 1f 00 e0 e0 1b 01 c0 f0 3b 83 c0 7c f1 ef     ..........;..|..
    2ea3:	80 3f e1 ff 80 1f c0 7e 00 0e 1a 34 12 02 f8 0f     .?.....~...4....
    2eb3:	e0 3f f8 3c 78 70 3c 70 1c f0 1c e0 00 e0 00 e0     .?.<xp<p........
    2ec3:	00 e0 00 e0 00 e0 00 f0 1c 70 1c 70 3c 3c 78 1f     .........p.p<<x.
    2ed3:	f0 07 e0 01 00 01 e0 01 f0 00 78 00 18 00 18 07     ..........x.....
    2ee3:	f0 07 e0 10 1c 38 13 02 00 1c 00 0e 00 0e 00 07     .....8..........
    2ef3:	00 03 80 01 80 00 c0 00 00 00 00 00 00 07 e0 1f     ................
    2f03:	f8 3c 7c 78 1e 70 0e f0 0e e0 0e ff fe ff ff e0     .<|x.p..........
    2f13:	00 e0 00 e0 00 70 0e 70 0e 78 1e 3e 7c 1f f8 07     .....p.p.x.>|...
    2f23:	e0 10 1c 38 13 02 00 00 78 00 f0 00 e0 01 c0 01     ...8....x.......
    2f33:	80 03 80 03 00 00 00 00 00 00 00 07 e0 1f f8 3c     ...............<
    2f43:	7c 78 1e 70 0e f0 0e e0 0e ff fe ff ff e0 00 e0     |x.p............
    2f53:	00 e0 00 70 0e 70 0e 78 1e 3e 7c 1f f8 07 e0 10     ...p.p.x.>|.....
    2f63:	1c 38 13 02 00 03 c0 07 c0 07 e0 0e e0 0c 70 18     .8............p.
    2f73:	30 18 18 00 00 00 00 00 00 07 e0 1f f8 3c 7c 78     0............<|x
    2f83:	1e 70 0e f0 0e e0 0e ff fe ff ff e0 00 e0 00 e0     .p..............
    2f93:	00 70 0e 70 0e 78 1e 3e 7c 1f f8 07 e0 10 19 32     .p.p.x.>|......2
    2fa3:	13 02 00 1c 38 1c 38 1c 38 00 00 00 00 00 00 00     ....8.8.8.......
    2fb3:	00 07 e0 1f f8 3c 3c 78 0e 70 0e f0 0e e0 06 ff     .....<<x.p......
    2fc3:	fe ff ff e0 00 e0 00 e0 00 70 0e 70 0e 78 1e 3e     .........p.p.x.>
    2fd3:	3c 1f f8 07 e0 06 1b 1b 08 ff 00 f0 70 38 18 1c     <...........p8..
    2fe3:	0c 00 00 00 1c 1c 1c 1c 1c 1c 1c 1c 1c 1c 1c 1c     ................
    2ff3:	1c 1c 1c 1c 1c 1c 06 1b 1b 08 02 00 1c 38 70 70     .............8pp
    3003:	e0 c0 00 00 00 e0 e0 e0 e0 e0 e0 e0 e0 e0 e0 e0     ................
    3013:	e0 e0 e0 e0 e0 e0 e0 09 1b 36 08 ff 00 3e 00 3e     .........6...>.>
    3023:	00 77 00 73 00 e3 80 c1 80 00 00 00 00 00 00 1c     .w.s............
    3033:	00 1c 00 1c 00 1c 00 1c 00 1c 00 1c 00 1c 00 1c     ................
    3043:	00 1c 00 1c 00 1c 00 1c 00 1c 00 1c 00 1c 00 1c     ................
    3053:	00 1c 00 0a 19 32 08 ff 00 e3 c0 e3 c0 e3 c0 00     .....2..........
    3063:	00 00 00 00 00 00 00 1c 00 1c 00 1c 00 1c 00 1c     ................
    3073:	00 1c 00 1c 00 1c 00 1c 00 1c 00 1c 00 1c 00 1c     ................
    3083:	00 1c 00 1c 00 1c 00 1c 00 1c 00 11 1a 4e 15 02     .............N..
    3093:	00 10 04 00 38 1c 00 1e f8 00 07 c0 00 0f c0 00     ....8...........
    30a3:	3c f0 00 70 78 00 00 3c 00 07 fc 00 1f fe 00 3e     <..px..<.......>
    30b3:	3f 00 78 0f 00 70 07 00 f0 07 80 f0 03 80 e0 03     ?.x..p..........
    30c3:	80 e0 03 80 e0 03 80 e0 03 80 e0 03 80 f0 07 00     ................
    30d3:	70 07 00 78 0f 00 3e 3e 00 1f fc 00 07 f0 00 0f     p..x..>>........
    30e3:	19 32 13 02 00 0f 30 1f f0 1b e0 00 00 00 00 00     .2....0.........
    30f3:	00 00 00 e3 f0 ef f8 fc 7c f8 1e f0 1e e0 0e e0     ........|.......
    3103:	0e e0 0e e0 0e e0 0e e0 0e e0 0e e0 0e e0 0e e0     ................
    3113:	0e e0 0e e0 0e e0 0e 11 1c 54 15 02 00 0e 00 00     .........T......
    3123:	0f 00 00 07 00 00 03 80 00 01 80 00 00 c0 00 00     ................
    3133:	e0 00 00 00 00 00 00 00 00 00 00 07 f0 00 1f fc     ................
    3143:	00 3e 3e 00 78 0f 00 70 07 00 f0 07 00 f0 07 80     .>>.x..p........
    3153:	e0 03 80 e0 03 80 e0 03 80 e0 03 80 f0 07 80 f0     ................
    3163:	07 80 70 07 00 78 0f 00 3e 3e 00 1f fc 00 07 f0     ..p..x..>>......
    3173:	00 11 1c 54 15 02 00 00 38 00 00 78 00 00 70 00     ...T....8..x..p.
    3183:	00 e0 00 00 c0 00 01 80 00 03 00 00 00 00 00 00     ................
    3193:	00 00 00 00 00 07 f0 00 1f fc 00 3e 3e 00 78 0f     ...........>>.x.
    31a3:	00 70 07 00 f0 07 00 f0 07 80 e0 03 80 e0 03 80     .p..............
    31b3:	e0 03 80 e0 03 80 f0 07 80 f0 07 80 70 07 00 78     ............p..x
    31c3:	0f 00 3e 3e 00 1f fc 00 07 f0 00 11 1c 54 15 02     ..>>.........T..
    31d3:	00 01 c0 00 03 e0 00 03 e0 00 07 70 00 0e 38 00     ...........p..8.
    31e3:	0c 18 00 1c 1c 00 00 00 00 00 00 00 00 00 00 07     ................
    31f3:	f0 00 1f fc 00 3e 3e 00 78 0f 00 70 07 00 f0 07     .....>>.x..p....
    3203:	00 f0 07 80 e0 03 80 e0 03 80 e0 03 80 e0 03 80     ................
    3213:	f0 07 80 f0 07 80 70 07 00 78 0f 00 3e 3e 00 1f     ......p..x..>>..
    3223:	fc 00 07 f0 00 11 19 4b 15 02 00 07 98 00 0f f8     .......K........
    3233:	00 0c f0 00 00 00 00 00 00 00 00 00 00 00 00 00     ................
    3243:	07 f0 00 1f fc 00 3e 3e 00 78 0f 00 70 07 00 f0     ......>>.x..p...
    3253:	07 00 f0 07 80 e0 03 80 e0 03 80 e0 03 80 e0 03     ................
    3263:	80 f0 07 80 f0 07 80 70 07 00 78 0f 00 3e 3e 00     .......p..x..>>.
    3273:	1f fc 00 07 f0 00 11 19 4b 15 02 00 1c 38 00 1c     ........K....8..
    3283:	38 00 1c 38 00 00 00 00 00 00 00 00 00 00 00 00     8..8............
    3293:	00 07 f0 00 1f fc 00 3e 3e 00 78 0f 00 70 07 00     .......>>.x..p..
    32a3:	f0 07 00 f0 07 80 e0 03 80 e0 03 80 e0 03 80 e0     ................
    32b3:	03 80 f0 07 80 f0 07 80 70 07 00 78 0f 00 3e 3e     ........p..x..>>
    32c3:	00 1f fc 00 07 f0 00 14 0f 2d 22 07 03 00 60 00     .........-"...`.
    32d3:	00 f0 00 00 f0 00 00 60 00 00 00 00 00 00 00 00     .......`........
    32e3:	00 00 ff ff f0 ff ff f0 00 00 00 00 00 00 00 60     ...............`
    32f3:	00 00 f0 00 00 f0 00 00 60 00 11 17 45 15 02 fe     ........`...E...
    3303:	00 01 00 00 01 80 00 03 80 07 f7 00 1f fe 00 3e     ...............>
    3313:	3e 00 78 1f 00 70 3f 00 f0 37 80 f0 77 80 e0 e3     >.x..p?..7..w...
    3323:	80 e1 c3 80 e1 83 80 e3 83 80 e7 07 80 fe 07 80     ................
    3333:	7c 07 00 7c 0f 00 3e 3e 00 7f fc 00 67 f0 00 e0     |..|..>>....g...
    3343:	00 00 c0 00 00 0f 1c 38 13 02 00 1c 00 1e 00 0e     .......8........
    3353:	00 07 00 03 00 01 80 01 80 00 00 00 00 00 00 e0     ................
    3363:	0e e0 0e e0 0e e0 0e e0 0e e0 0e e0 0e e0 0e e0     ................
    3373:	0e e0 0e e0 0e e0 0e e0 0e f0 1e f0 1e 7c 7e 3f     .............|~?
    3383:	ee 1f 8e 0f 1c 38 13 02 00 00 70 00 f0 00 e0 01     .....8....p.....
    3393:	c0 01 80 03 00 07 00 00 00 00 00 00 00 e0 0e e0     ................
    33a3:	0e e0 0e e0 0e e0 0e e0 0e e0 0e e0 0e e0 0e e0     ................
    33b3:	0e e0 0e e0 0e e0 0e f0 1e f0 1e 7c 7e 3f ee 1f     ...........|~?..
    33c3:	8e 0f 1c 38 13 02 00 03 80 07 c0 07 c0 0e e0 0c     ...8............
    33d3:	60 18 30 18 30 00 00 00 00 00 00 e0 0e e0 0e e0     `.0.0...........
    33e3:	0e e0 0e e0 0e e0 0e e0 0e e0 0e e0 0e e0 0e e0     ................
    33f3:	0e e0 0e e0 0e f0 1e f0 1e 7c 7e 3f ee 1f 8e 0f     .........|~?....
    3403:	19 32 13 02 00 38 70 38 70 38 70 00 00 00 00 00     .2...8p8p8p.....
    3413:	00 00 00 e0 0e e0 0e e0 0e e0 0e e0 0e e0 0e e0     ................
    3423:	0e e0 0e e0 0e e0 0e e0 0e e0 0e e0 0e f0 1e f0     ................
    3433:	3e 7c 7e 3f ee 1f 8e 10 22 44 12 01 f9 00 38 00     >|~?...."D....8.
    3443:	70 00 60 00 e0 01 c0 01 80 00 00 00 00 00 00 e0     p.`.............
    3453:	07 f0 07 70 0f 70 0e 78 0e 38 1e 3c 1c 1c 1c 1c     ...p.p.x.8.<....
    3463:	3c 1e 38 0e 78 0f 70 07 70 07 f0 07 e0 03 e0 03     <.8.x.p.p.......
    3473:	e0 01 c0 01 c0 03 80 03 80 e7 80 ff 00 7f 00 3e     ...............>
    3483:	00 10 20 40 14 02 f9 e0 00 e0 00 e0 00 e0 00 e0     .. @............
    3493:	00 e0 00 e0 00 e3 f0 e7 f8 fe 3c f8 1e f0 0e f0     ..........<.....
    34a3:	0f e0 07 e0 07 e0 07 e0 07 e0 07 e0 07 f0 0f f0     ................
    34b3:	0e f8 1e fe 7c ef f8 e3 f0 e0 00 e0 00 e0 00 e0     ....|...........
    34c3:	00 e0 00 e0 00 e0 00 10 20 40 12 01 f9 1c 38 1c     ........ @....8.
    34d3:	38 1c 38 00 00 00 00 00 00 00 00 e0 07 e0 07 f0     8.8.............
    34e3:	0f 70 0e 78 0e 38 1e 3c 1c 3c 1c 1c 38 1e 38 0e     .p.x.8.<.<..8.8.
    34f3:	78 0f 70 0f 70 07 f0 07 e0 03 e0 03 c0 03 c0 03     x.p.p...........
    3503:	c0 03 80 03 80 07 80 07 00 07 00 0f 00              .............

00003510 <u8g_font_7x13>:
    3510:	01 07 0d 00 fe 09 01 5f 02 cf 20 ff fe 0b fe 0a     ......._.. .....
    3520:	fe 0d 00 70 32 19 79 80 80 80 80 80 80 80 00 80     ...p2.y.........
    3530:	28 33 73 a0 a0 a0 13 57 77 50 50 f8 50 f8 50 50     (3s....WwPP.P.PP
    3540:	13 57 77 20 78 a0 70 28 f0 20 02 69 79 44 a4 48     .Ww x.p(. .iyD.H
    3550:	10 10 20 48 94 88 02 67 77 60 90 90 60 94 88 74     .. H...gw`..`..t
    3560:	38 13 73 80 80 80 22 39 79 20 40 40 80 80 80 40     8.s..."9y @@...@
    3570:	40 20 22 39 79 80 40 40 20 20 20 40 40 80 04 65     @ "9y.@@   @@..e
    3580:	75 48 30 fc 30 48 14 55 75 20 20 f8 20 20 11 43     uH0.0H.Uu  .  .C
    3590:	73 70 60 80 16 51 71 f8 21 33 73 40 e0 40 12 59     sp`..Qq.!3s@.@.Y
    35a0:	79 08 08 10 10 20 40 40 80 80 02 69 79 30 48 84     y.... @@...iy0H.
    35b0:	84 84 84 84 48 30 12 59 79 20 60 a0 20 20 20 20     ....H0.Yy `.    
    35c0:	20 f8 02 69 79 78 84 84 04 08 30 40 80 fc 02 69      ..iyx....0@...i
    35d0:	79 fc 04 08 10 38 04 04 84 78 02 69 79 08 18 28     y....8...x.iy..(
    35e0:	48 88 88 fc 08 08 02 69 79 fc 80 80 b8 c4 04 04     H......iy.......
    35f0:	84 78 02 69 79 38 40 80 80 b8 c4 84 84 78 02 69     .x.iy8@......x.i
    3600:	79 fc 04 08 10 10 20 20 40 40 02 69 79 78 84 84     y.....  @@.iyx..
    3610:	84 78 84 84 84 78 02 69 79 78 84 84 8c 74 04 04     .x...x.iyx...t..
    3620:	08 70 21 38 78 40 e0 40 00 00 40 e0 40 11 48 78     .p!8x@.@..@.@.Hx
    3630:	20 70 20 00 00 70 60 80 12 59 79 08 10 20 40 80      p ..p`..Yy.. @.
    3640:	40 20 10 08 04 64 74 fc 00 00 fc 12 59 79 80 40     @ ...dt.....Yy.@
    3650:	20 10 08 10 20 40 80 02 69 79 78 84 84 04 08 10      ... @..iyx.....
    3660:	10 00 10 02 69 79 78 84 84 9c a4 ac 94 80 78 02     ....iyx.......x.
    3670:	69 79 30 48 84 84 84 fc 84 84 84 02 69 79 f8 44     iy0H........iy.D
    3680:	44 44 78 44 44 44 f8 02 69 79 78 84 80 80 80 80     DDxDDD..iyx.....
    3690:	80 84 78 02 69 79 f8 44 44 44 44 44 44 44 f8 02     ..x.iy.DDDDDDD..
    36a0:	69 79 fc 80 80 80 f0 80 80 80 fc 02 69 79 fc 80     iy..........iy..
    36b0:	80 80 f0 80 80 80 80 02 69 79 78 84 80 80 80 9c     ........iyx.....
    36c0:	84 8c 74 02 69 79 84 84 84 84 fc 84 84 84 84 12     ..t.iy..........
    36d0:	59 79 f8 20 20 20 20 20 20 20 f8 02 69 79 1c 08     Yy.       ..iy..
    36e0:	08 08 08 08 08 88 70 02 69 79 84 88 90 a0 c0 a0     ......p.iy......
    36f0:	90 88 84 02 69 79 80 80 80 80 80 80 80 80 fc 02     ....iy..........
    3700:	69 79 84 cc cc b4 b4 84 84 84 84 02 69 79 84 84     iy..........iy..
    3710:	c4 a4 94 8c 84 84 84 02 69 79 78 84 84 84 84 84     ........iyx.....
    3720:	84 84 78 02 69 79 f8 84 84 84 f8 80 80 80 80 01     ..x.iy..........
    3730:	6a 7a 78 84 84 84 84 84 a4 94 78 04 02 69 79 f8     jzx.......x..iy.
    3740:	84 84 84 f8 a0 90 88 84 02 69 79 78 84 80 80 78     .........iyx...x
    3750:	04 04 84 78 12 59 79 f8 20 20 20 20 20 20 20 20     ...x.Yy.        
    3760:	02 69 79 84 84 84 84 84 84 84 84 78 02 69 79 84     .iy........x.iy.
    3770:	84 84 48 48 48 30 30 30 02 69 79 84 84 84 84 b4     ..HHH000.iy.....
    3780:	b4 cc cc 84 02 69 79 84 84 48 48 30 48 48 84 84     .....iy..HH0HH..
    3790:	12 59 79 88 88 50 50 20 20 20 20 20 02 69 79 fc     .Yy..PP     .iy.
    37a0:	04 08 10 30 20 40 80 fc 11 4b 7b f0 80 80 80 80     ...0 @...K{.....
    37b0:	80 80 80 80 80 f0 12 59 79 80 80 40 40 20 10 10     .......Yy..@@ ..
    37c0:	08 08 11 4b 7b f0 10 10 10 10 10 10 10 10 10 f0     ...K{...........
    37d0:	18 53 73 20 50 88 01 61 71 fc 2a 22 72 80 40 02     .Ss P..aq.*"r.@.
    37e0:	66 76 78 04 7c 84 8c 74 02 69 79 80 80 80 b8 c4     fvx.|..t.iy.....
    37f0:	84 84 c4 b8 02 66 76 78 84 80 80 84 78 02 69 79     .....fvx....x.iy
    3800:	04 04 04 74 8c 84 84 8c 74 02 66 76 78 84 fc 80     ...t....t.fvx...
    3810:	84 78 02 69 79 38 44 40 40 f0 40 40 40 40 00 68     .x.iy8D@@.@@@@.h
    3820:	78 74 88 88 70 80 78 84 78 02 69 79 80 80 80 b8     xt..p.x.x.iy....
    3830:	c4 84 84 84 84 12 58 78 20 00 60 20 20 20 20 f8     ......Xx .`    .
    3840:	10 5a 7a 08 00 18 08 08 08 08 88 88 70 02 69 79     .Zz.........p.iy
    3850:	80 80 80 88 90 e0 90 88 84 12 59 79 60 20 20 20     ..........Yy`   
    3860:	20 20 20 20 f8 12 56 76 d0 a8 a8 a8 a8 88 02 66         ..Vv.......f
    3870:	76 b8 c4 84 84 84 84 02 66 76 78 84 84 84 84 78     v.......fvx....x
    3880:	00 68 78 b8 c4 84 c4 b8 80 80 80 00 68 78 74 8c     .hx.........hxt.
    3890:	84 8c 74 04 04 04 02 66 76 b8 44 40 40 40 40 02     ..t....fv.D@@@@.
    38a0:	66 76 78 84 60 18 84 78 02 68 78 40 40 f0 40 40     fvx.`..x.hx@@.@@
    38b0:	40 44 38 02 66 76 84 84 84 84 8c 74 12 56 76 88     @D8.fv.....t.Vv.
    38c0:	88 88 50 50 20 12 56 76 88 88 a8 a8 a8 50 02 66     ..PP .Vv.....P.f
    38d0:	76 84 48 30 30 48 84 00 68 78 84 84 84 8c 74 04     v.H00H..hx....t.
    38e0:	84 78 02 66 76 fc 08 10 20 40 fc 11 5b 7b 38 40     .x.fv... @..[{8@
    38f0:	40 40 20 c0 20 40 40 40 38 32 19 79 80 80 80 80     @@ . @@@82.y....
    3900:	80 80 80 80 80 11 5b 7b e0 10 10 10 20 18 20 10     ......[{.... . .
    3910:	10 10 e0 18 53 73 48 a8 90 ff ff ff ff ff ff ff     ....SsH.........
    3920:	ff ff ff ff ff ff ff ff ff ff ff ff ff ff ff ff     ................
    3930:	ff ff ff ff ff ff ff ff ff ff 0d 00 70 32 19 79     ............p2.y
    3940:	80 00 80 80 80 80 80 80 80 13 58 78 20 70 a8 a0     ..........Xx p..
    3950:	a0 a8 70 20 02 69 79 38 44 40 40 e0 40 40 44 b8     ..p .iy8D@@.@@D.
    3960:	03 66 76 84 78 48 48 78 84 02 59 79 88 88 50 50     .fv.xHHx..Yy..PP
    3970:	f8 20 f8 20 20 32 19 79 80 80 80 80 00 80 80 80     . .  2.y........
    3980:	80 12 4a 7a 60 90 80 60 90 90 60 10 90 60 19 42     ..Jz`..`..`..`.B
    3990:	72 90 90 02 69 79 78 84 b4 a4 a4 a4 b4 84 78 14     r...iyx.......x.
    39a0:	57 77 70 08 78 88 78 00 f8 03 67 77 14 28 50 a0     Wwp.x.x...gw.(P.
    39b0:	50 28 14 14 53 73 f8 08 08 16 41 71 f0 02 69 79     P(..Ss....Aq..iy
    39c0:	78 84 b4 ac ac b4 ac 84 78 1a 51 71 f8 17 44 74     x.......x.Qq..Dt
    39d0:	60 90 90 60 13 57 77 20 20 f8 20 20 00 f8 16 36     `..`.Ww  .  ...6
    39e0:	76 40 a0 20 40 80 e0 16 36 76 e0 20 40 20 a0 40     v@. @...6v. @ .@
    39f0:	2a 22 72 40 80 01 67 77 84 84 84 84 cc b4 80 02     *"r@..gw........
    3a00:	69 79 7c e8 e8 e8 68 28 28 28 28 26 21 71 c0 20     iy|...h((((&!q. 
    3a10:	22 72 40 80 16 36 76 40 c0 40 40 40 e0 15 46 76     "r@..6v@.@@@..Fv
    3a20:	60 90 90 60 00 f0 03 67 77 a0 50 28 14 28 50 a0     `..`...gw.P(.(P.
    3a30:	02 6a 7a 40 c0 40 40 44 ec 14 14 1c 04 02 6a 7a     .jz@.@@D......jz
    3a40:	40 c0 40 40 48 f4 04 08 10 1c 02 6a 7a e0 20 40     @.@@H......jz. @
    3a50:	20 a4 4c 14 14 1c 04 02 69 79 20 00 20 20 40 80      .L.....iy .  @.
    3a60:	84 84 78 02 6a 7a 20 10 00 30 48 84 84 fc 84 84     ..x.jz ..0H.....
    3a70:	02 6a 7a 10 20 00 30 48 84 84 fc 84 84 02 6a 7a     .jz. .0H......jz
    3a80:	30 48 00 30 48 84 84 fc 84 84 02 6a 7a 64 98 00     0H.0H......jzd..
    3a90:	30 48 84 84 fc 84 84 02 6a 7a 48 48 00 30 48 84     0H......jzHH.0H.
    3aa0:	84 fc 84 84 02 6a 7a 30 48 30 30 48 84 84 fc 84     .....jz0H00H....
    3ab0:	84 02 69 79 5c a0 a0 a0 b8 e0 a0 a0 bc 00 6b 7b     ..iy\.........k{
    3ac0:	78 84 80 80 80 80 80 84 78 10 20 02 6a 7a 20 10     x.......x. .jz .
    3ad0:	00 fc 80 80 f0 80 80 fc 02 6a 7a 10 20 00 fc 80     .........jz. ...
    3ae0:	80 f0 80 80 fc 02 6a 7a 30 48 00 fc 80 80 f0 80     ......jz0H......
    3af0:	80 fc 02 6a 7a 48 48 00 fc 80 80 f0 80 80 fc 12     ...jzHH.........
    3b00:	5a 7a 40 20 00 f8 20 20 20 20 20 f8 12 5a 7a 20     Zz@ ..     ..Zz 
    3b10:	40 00 f8 20 20 20 20 20 f8 12 5a 7a 20 50 00 f8     @..     ..Zz P..
    3b20:	20 20 20 20 20 f8 12 5a 7a 88 88 00 f8 20 20 20          ..Zz....   
    3b30:	20 20 f8 02 69 79 f8 44 44 44 e4 44 44 44 f8 02       ..iy.DDD.DDD..
    3b40:	6a 7a 64 98 00 84 c4 a4 a4 94 8c 84 02 6a 7a 20     jzd..........jz 
    3b50:	10 00 78 84 84 84 84 84 78 02 6a 7a 10 20 00 78     ..x.....x.jz. .x
    3b60:	84 84 84 84 84 78 02 6a 7a 30 48 00 78 84 84 84     .....x.jz0H.x...
    3b70:	84 84 78 02 6a 7a 64 98 00 78 84 84 84 84 84 78     ..x.jzd..x.....x
    3b80:	02 6a 7a 48 48 00 78 84 84 84 84 84 78 03 66 76     .jzHH.x.....x.fv
    3b90:	84 48 30 30 48 84 01 6b 7b 04 78 8c 94 94 a4 a4     .H00H..k{.x.....
    3ba0:	a4 c4 78 80 02 6a 7a 20 10 00 84 84 84 84 84 84     ..x..jz ........
    3bb0:	78 02 6a 7a 10 20 00 84 84 84 84 84 84 78 02 6a     x.jz. .......x.j
    3bc0:	7a 30 48 00 84 84 84 84 84 84 78 02 6a 7a 48 48     z0H.......x.jzHH
    3bd0:	00 84 84 84 84 84 84 78 12 5a 7a 10 20 00 88 88     .......x.Zz. ...
    3be0:	50 20 20 20 20 02 69 79 80 f8 84 84 84 f8 80 80     P    .iy........
    3bf0:	80 12 59 79 60 90 90 a0 a0 90 88 88 b0 02 69 79     ..Yy`.........iy
    3c00:	20 10 00 78 04 7c 84 8c 74 02 69 79 10 20 00 78      ..x.|..t.iy. .x
    3c10:	04 7c 84 8c 74 02 69 79 30 48 00 78 04 7c 84 8c     .|..t.iy0H.x.|..
    3c20:	74 02 69 79 64 98 00 78 04 7c 84 8c 74 02 69 79     t.iyd..x.|..t.iy
    3c30:	48 48 00 78 04 7c 84 8c 74 02 6a 7a 30 48 30 00     HH.x.|..t.jz0H0.
    3c40:	78 04 7c 84 8c 74 02 66 76 68 14 7c 90 94 68 00     x.|..t.fvh.|..h.
    3c50:	68 78 78 84 80 80 84 78 10 20 02 69 79 20 10 00     hxx....x. .iy ..
    3c60:	78 84 fc 80 84 78 02 69 79 10 20 00 78 84 fc 80     x....x.iy. .x...
    3c70:	84 78 02 69 79 30 48 00 78 84 fc 80 84 78 02 69     .x.iy0H.x....x.i
    3c80:	79 48 48 00 78 84 fc 80 84 78 12 59 79 40 20 00     yHH.x....x.Yy@ .
    3c90:	60 20 20 20 20 f8 12 59 79 20 40 00 60 20 20 20     `    ..Yy @.`   
    3ca0:	20 f8 12 59 79 60 90 00 60 20 20 20 20 f8 12 59      ..Yy`..`    ..Y
    3cb0:	79 90 90 00 60 20 20 20 20 f8 02 6a 7a 48 30 50     y...`    ..jzH0P
    3cc0:	08 78 84 84 84 84 78 02 69 79 64 98 00 b8 c4 84     .x....x.iyd.....
    3cd0:	84 84 84 02 69 79 20 10 00 78 84 84 84 84 78 02     ....iy ..x....x.
    3ce0:	69 79 10 20 00 78 84 84 84 84 78 02 69 79 30 48     iy. .x....x.iy0H
    3cf0:	00 78 84 84 84 84 78 02 69 79 64 98 00 78 84 84     .x....x.iyd..x..
    3d00:	84 84 78 02 69 79 48 48 00 78 84 84 84 84 78 13     ..x.iyHH.x....x.
    3d10:	57 77 20 20 00 f8 00 20 20 01 68 78 04 78 8c 94     Ww  ...  .hx.x..
    3d20:	a4 c4 78 80 02 69 79 20 10 00 84 84 84 84 8c 74     ..x..iy .......t
    3d30:	02 69 79 10 20 00 84 84 84 84 8c 74 02 69 79 30     .iy. ......t.iy0
    3d40:	48 00 84 84 84 84 8c 74 02 69 79 48 48 00 84 84     H......t.iyHH...
    3d50:	84 84 8c 74 00 6b 7b 10 20 00 84 84 84 8c 74 04     ...t.k{. .....t.
    3d60:	84 78 00 6a 7a 80 80 b8 c4 84 84 c4 b8 80 80 00     .x.jz...........
    3d70:	6b 7b 48 48 00 84 84 84 8c 74 04 84 78 00           k{HH.....t..x.

00003d7e <__ctors_end>:
    3d7e:	11 24       	eor	r1, r1
    3d80:	1f be       	out	0x3f, r1	; 63
    3d82:	cf ef       	ldi	r28, 0xFF	; 255
    3d84:	d8 e0       	ldi	r29, 0x08	; 8
    3d86:	de bf       	out	0x3e, r29	; 62
    3d88:	cd bf       	out	0x3d, r28	; 61

00003d8a <__do_copy_data>:
    3d8a:	11 e0       	ldi	r17, 0x01	; 1
    3d8c:	a0 e0       	ldi	r26, 0x00	; 0
    3d8e:	b1 e0       	ldi	r27, 0x01	; 1
    3d90:	e4 e6       	ldi	r30, 0x64	; 100
    3d92:	fc e6       	ldi	r31, 0x6C	; 108
    3d94:	02 c0       	rjmp	.+4      	; 0x3d9a <__do_copy_data+0x10>
    3d96:	05 90       	lpm	r0, Z+
    3d98:	0d 92       	st	X+, r0
    3d9a:	a6 38       	cpi	r26, 0x86	; 134
    3d9c:	b1 07       	cpc	r27, r17
    3d9e:	d9 f7       	brne	.-10     	; 0x3d96 <__do_copy_data+0xc>

00003da0 <__do_clear_bss>:
    3da0:	23 e0       	ldi	r18, 0x03	; 3
    3da2:	a6 e8       	ldi	r26, 0x86	; 134
    3da4:	b1 e0       	ldi	r27, 0x01	; 1
    3da6:	01 c0       	rjmp	.+2      	; 0x3daa <.do_clear_bss_start>

00003da8 <.do_clear_bss_loop>:
    3da8:	1d 92       	st	X+, r1

00003daa <.do_clear_bss_start>:
    3daa:	ac 33       	cpi	r26, 0x3C	; 60
    3dac:	b2 07       	cpc	r27, r18
    3dae:	e1 f7       	brne	.-8      	; 0x3da8 <.do_clear_bss_loop>
    3db0:	0e 94 a7 21 	call	0x434e	; 0x434e <main>
    3db4:	0c 94 30 36 	jmp	0x6c60	; 0x6c60 <_exit>

00003db8 <__bad_interrupt>:
    3db8:	0c 94 00 00 	jmp	0	; 0x0 <__vectors>

00003dbc <_Z8delay_usi>:

void delay_us(int us){
	for (int i=0; i < us; i++){
    3dbc:	18 16       	cp	r1, r24
    3dbe:	19 06       	cpc	r1, r25
    3dc0:	5c f4       	brge	.+22     	; 0x3dd8 <_Z8delay_usi+0x1c>
    3dc2:	20 e0       	ldi	r18, 0x00	; 0
    3dc4:	30 e0       	ldi	r19, 0x00	; 0
	#else
		//round up by default
		__ticks_dc = (uint32_t)(ceil(fabs(__tmp)));
	#endif

	__builtin_avr_delay_cycles(__ticks_dc);
    3dc6:	46 e0       	ldi	r20, 0x06	; 6
    3dc8:	4a 95       	dec	r20
    3dca:	f1 f7       	brne	.-4      	; 0x3dc8 <_Z8delay_usi+0xc>
    3dcc:	00 c0       	rjmp	.+0      	; 0x3dce <_Z8delay_usi+0x12>
    3dce:	2f 5f       	subi	r18, 0xFF	; 255
    3dd0:	3f 4f       	sbci	r19, 0xFF	; 255
    3dd2:	28 17       	cp	r18, r24
    3dd4:	39 07       	cpc	r19, r25
    3dd6:	b9 f7       	brne	.-18     	; 0x3dc6 <_Z8delay_usi+0xa>
    3dd8:	08 95       	ret

00003dda <_Z8delay_msi>:
		_delay_us(1);
	}	
}

void delay_ms(int ms){
	for (int i=0; i < ms; i++){
    3dda:	18 16       	cp	r1, r24
    3ddc:	19 06       	cpc	r1, r25
    3dde:	6c f4       	brge	.+26     	; 0x3dfa <_Z8delay_msi+0x20>
    3de0:	20 e0       	ldi	r18, 0x00	; 0
    3de2:	30 e0       	ldi	r19, 0x00	; 0
	#else
		//round up by default
		__ticks_dc = (uint32_t)(ceil(fabs(__tmp)));
	#endif

	__builtin_avr_delay_cycles(__ticks_dc);
    3de4:	e7 e8       	ldi	r30, 0x87	; 135
    3de6:	f3 e1       	ldi	r31, 0x13	; 19
    3de8:	31 97       	sbiw	r30, 0x01	; 1
    3dea:	f1 f7       	brne	.-4      	; 0x3de8 <_Z8delay_msi+0xe>
    3dec:	00 c0       	rjmp	.+0      	; 0x3dee <_Z8delay_msi+0x14>
    3dee:	00 00       	nop
    3df0:	2f 5f       	subi	r18, 0xFF	; 255
    3df2:	3f 4f       	sbci	r19, 0xFF	; 255
    3df4:	28 17       	cp	r18, r24
    3df6:	39 07       	cpc	r19, r25
    3df8:	a9 f7       	brne	.-22     	; 0x3de4 <_Z8delay_msi+0xa>
    3dfa:	08 95       	ret

00003dfc <_Z11TransactSPIh>:
		_delay_ms(1);
	}	
}

uint8_t TransactSPI(uint8_t data){
    SPDR = data;
    3dfc:	8e bd       	out	0x2e, r24	; 46
    while(!(SPSR & (1<<SPIF)))
    3dfe:	0d b4       	in	r0, 0x2d	; 45
    3e00:	07 fe       	sbrs	r0, 7
    3e02:	fd cf       	rjmp	.-6      	; 0x3dfe <_Z11TransactSPIh+0x2>
    {
    //do nothing, loop itself is a jump (2 instr. cycles?)
    }
    return SPDR;
    3e04:	8e b5       	in	r24, 0x2e	; 46
}
    3e06:	08 95       	ret

00003e08 <_Z11power_scalev>:

void power_scale(void){
    3e08:	af 92       	push	r10
    3e0a:	bf 92       	push	r11
    3e0c:	cf 92       	push	r12
    3e0e:	df 92       	push	r13
    3e10:	ef 92       	push	r14
    3e12:	ff 92       	push	r15
    3e14:	0f 93       	push	r16
    3e16:	1f 93       	push	r17
    3e18:	cf 93       	push	r28
    3e1a:	df 93       	push	r29
	float scale=0;
	uint8_t startx=10;
	uint8_t starty=64;
	uint8_t somex=10;
	scale = power_value/MAX_POWER;
    3e1c:	20 e0       	ldi	r18, 0x00	; 0
    3e1e:	30 e0       	ldi	r19, 0x00	; 0
    3e20:	46 e1       	ldi	r20, 0x16	; 22
    3e22:	53 e4       	ldi	r21, 0x43	; 67
    3e24:	60 91 90 01 	lds	r22, 0x0190
    3e28:	70 91 91 01 	lds	r23, 0x0191
    3e2c:	80 91 92 01 	lds	r24, 0x0192
    3e30:	90 91 93 01 	lds	r25, 0x0193
    3e34:	0e 94 ea 29 	call	0x53d4	; 0x53d4 <__divsf3>
    3e38:	6b 01       	movw	r12, r22
    3e3a:	7c 01       	movw	r14, r24
	if (scale > 1){
    3e3c:	20 e0       	ldi	r18, 0x00	; 0
    3e3e:	30 e0       	ldi	r19, 0x00	; 0
    3e40:	40 e8       	ldi	r20, 0x80	; 128
    3e42:	5f e3       	ldi	r21, 0x3F	; 63
    3e44:	0e 94 35 2b 	call	0x566a	; 0x566a <__gesf2>
    3e48:	18 16       	cp	r1, r24
    3e4a:	44 f4       	brge	.+16     	; 0x3e5c <_Z11power_scalev+0x54>
		scale=1;
    3e4c:	0f 2e       	mov	r0, r31
    3e4e:	c1 2c       	mov	r12, r1
    3e50:	d1 2c       	mov	r13, r1
    3e52:	f0 e8       	ldi	r31, 0x80	; 128
    3e54:	ef 2e       	mov	r14, r31
    3e56:	ff e3       	ldi	r31, 0x3F	; 63
    3e58:	ff 2e       	mov	r15, r31
    3e5a:	f0 2d       	mov	r31, r0
    3e5c:	1a e0       	ldi	r17, 0x0A	; 10
	}	
	for(int i=0; i <= 8; i++){
    3e5e:	c0 e0       	ldi	r28, 0x00	; 0
    3e60:	d0 e0       	ldi	r29, 0x00	; 0
		if(i==0 || i== 4 || i== 8) {
    3e62:	5e 01       	movw	r10, r28
    3e64:	e8 94       	clt
    3e66:	a2 f8       	bld	r10, 2
    3e68:	a1 14       	cp	r10, r1
    3e6a:	b1 04       	cpc	r11, r1
    3e6c:	19 f0       	breq	.+6      	; 0x3e74 <_Z11power_scalev+0x6c>
    3e6e:	c8 30       	cpi	r28, 0x08	; 8
    3e70:	d1 05       	cpc	r29, r1
    3e72:	41 f4       	brne	.+16     	; 0x3e84 <_Z11power_scalev+0x7c>
			 u8g_DrawLine(&u8g,startx+i*somex,starty,startx+i*somex,starty-4);
    3e74:	0c e3       	ldi	r16, 0x3C	; 60
    3e76:	21 2f       	mov	r18, r17
    3e78:	40 e4       	ldi	r20, 0x40	; 64
    3e7a:	61 2f       	mov	r22, r17
    3e7c:	84 e8       	ldi	r24, 0x84	; 132
    3e7e:	92 e0       	ldi	r25, 0x02	; 2
    3e80:	0e 94 32 30 	call	0x6064	; 0x6064 <u8g_DrawLine>
		}
		if(i==1 || i== 3 || i== 5 || i== 7) {
    3e84:	ce 01       	movw	r24, r28
    3e86:	8d 7f       	andi	r24, 0xFD	; 253
    3e88:	81 30       	cpi	r24, 0x01	; 1
    3e8a:	91 05       	cpc	r25, r1
    3e8c:	11 f0       	breq	.+4      	; 0x3e92 <_Z11power_scalev+0x8a>
    3e8e:	05 97       	sbiw	r24, 0x05	; 5
    3e90:	41 f4       	brne	.+16     	; 0x3ea2 <_Z11power_scalev+0x9a>
			 u8g_DrawLine(&u8g,startx+i*somex,starty,startx+i*somex,starty-2);
    3e92:	0e e3       	ldi	r16, 0x3E	; 62
    3e94:	21 2f       	mov	r18, r17
    3e96:	40 e4       	ldi	r20, 0x40	; 64
    3e98:	61 2f       	mov	r22, r17
    3e9a:	84 e8       	ldi	r24, 0x84	; 132
    3e9c:	92 e0       	ldi	r25, 0x02	; 2
    3e9e:	0e 94 32 30 	call	0x6064	; 0x6064 <u8g_DrawLine>
		}
		if(i==2 || i== 6) {
    3ea2:	82 e0       	ldi	r24, 0x02	; 2
    3ea4:	a8 16       	cp	r10, r24
    3ea6:	b1 04       	cpc	r11, r1
    3ea8:	41 f4       	brne	.+16     	; 0x3eba <_Z11power_scalev+0xb2>
			 u8g_DrawLine(&u8g,startx+i*somex,starty,startx+i*somex,starty-3);
    3eaa:	0d e3       	ldi	r16, 0x3D	; 61
    3eac:	21 2f       	mov	r18, r17
    3eae:	40 e4       	ldi	r20, 0x40	; 64
    3eb0:	61 2f       	mov	r22, r17
    3eb2:	84 e8       	ldi	r24, 0x84	; 132
    3eb4:	92 e0       	ldi	r25, 0x02	; 2
    3eb6:	0e 94 32 30 	call	0x6064	; 0x6064 <u8g_DrawLine>
	uint8_t somex=10;
	scale = power_value/MAX_POWER;
	if (scale > 1){
		scale=1;
	}	
	for(int i=0; i <= 8; i++){
    3eba:	21 96       	adiw	r28, 0x01	; 1
    3ebc:	16 5f       	subi	r17, 0xF6	; 246
    3ebe:	14 36       	cpi	r17, 0x64	; 100
    3ec0:	81 f6       	brne	.-96     	; 0x3e62 <_Z11power_scalev+0x5a>
		}
		if(i==2 || i== 6) {
			 u8g_DrawLine(&u8g,startx+i*somex,starty,startx+i*somex,starty-3);
		}	
	}
	u8g_DrawBox(&u8g,startx,starty-7,81*scale,2);
    3ec2:	20 e0       	ldi	r18, 0x00	; 0
    3ec4:	30 e0       	ldi	r19, 0x00	; 0
    3ec6:	42 ea       	ldi	r20, 0xA2	; 162
    3ec8:	52 e4       	ldi	r21, 0x42	; 66
    3eca:	c7 01       	movw	r24, r14
    3ecc:	b6 01       	movw	r22, r12
    3ece:	0e 94 39 2b 	call	0x5672	; 0x5672 <__mulsf3>
    3ed2:	0e 94 57 2a 	call	0x54ae	; 0x54ae <__fixunssfsi>
    3ed6:	26 2f       	mov	r18, r22
    3ed8:	02 e0       	ldi	r16, 0x02	; 2
    3eda:	49 e3       	ldi	r20, 0x39	; 57
    3edc:	6a e0       	ldi	r22, 0x0A	; 10
    3ede:	84 e8       	ldi	r24, 0x84	; 132
    3ee0:	92 e0       	ldi	r25, 0x02	; 2
    3ee2:	0e 94 ff 33 	call	0x67fe	; 0x67fe <u8g_DrawBox>
}
    3ee6:	df 91       	pop	r29
    3ee8:	cf 91       	pop	r28
    3eea:	1f 91       	pop	r17
    3eec:	0f 91       	pop	r16
    3eee:	ff 90       	pop	r15
    3ef0:	ef 90       	pop	r14
    3ef2:	df 90       	pop	r13
    3ef4:	cf 90       	pop	r12
    3ef6:	bf 90       	pop	r11
    3ef8:	af 90       	pop	r10
    3efa:	08 95       	ret

00003efc <_Z9RWLMP8358v>:

void RWLMP8358(){
INSTR_ACTIVE;
    3efc:	5d 98       	cbi	0x0b, 5	; 11
	#else
		//round up by default
		__ticks_dc = (uint32_t)(ceil(fabs(__tmp)));
	#endif

	__builtin_avr_delay_cycles(__ticks_dc);
    3efe:	86 e0       	ldi	r24, 0x06	; 6
    3f00:	8a 95       	dec	r24
    3f02:	f1 f7       	brne	.-4      	; 0x3f00 <_Z9RWLMP8358v+0x4>
    3f04:	00 c0       	rjmp	.+0      	; 0x3f06 <_Z9RWLMP8358v+0xa>
_delay_us(1);
//start value with x gain and min bandwidth
uint8_t start_val_LMP8358_1=0b00000000;
//0b00000110 for 1000amp,0b00000101 for 500amp, 0b00000100 for 200amp, 0b00000011 for 100amp, 
uint8_t start_val_LMP8358_2=0b00000101; 
TransactSPI(start_val_LMP8358_1);
    3f06:	80 e0       	ldi	r24, 0x00	; 0
    3f08:	0e 94 fe 1e 	call	0x3dfc	; 0x3dfc <_Z11TransactSPIh>
TransactSPI(start_val_LMP8358_2);
    3f0c:	85 e0       	ldi	r24, 0x05	; 5
    3f0e:	0e 94 fe 1e 	call	0x3dfc	; 0x3dfc <_Z11TransactSPIh>
TransactSPI(start_val_LMP8358_1);
    3f12:	80 e0       	ldi	r24, 0x00	; 0
    3f14:	0e 94 fe 1e 	call	0x3dfc	; 0x3dfc <_Z11TransactSPIh>
spi_test=TransactSPI(start_val_LMP8358_2);
    3f18:	85 e0       	ldi	r24, 0x05	; 5
    3f1a:	0e 94 fe 1e 	call	0x3dfc	; 0x3dfc <_Z11TransactSPIh>
    3f1e:	80 93 9d 01 	sts	0x019D, r24
    3f22:	86 e0       	ldi	r24, 0x06	; 6
    3f24:	8a 95       	dec	r24
    3f26:	f1 f7       	brne	.-4      	; 0x3f24 <_Z9RWLMP8358v+0x28>
    3f28:	00 c0       	rjmp	.+0      	; 0x3f2a <_Z9RWLMP8358v+0x2e>
_delay_us(1);
INSTR_IDLE;
    3f2a:	5d 9a       	sbi	0x0b, 5	; 11
    3f2c:	86 e0       	ldi	r24, 0x06	; 6
    3f2e:	8a 95       	dec	r24
    3f30:	f1 f7       	brne	.-4      	; 0x3f2e <_Z9RWLMP8358v+0x32>
    3f32:	00 c0       	rjmp	.+0      	; 0x3f34 <_Z9RWLMP8358v+0x38>
_delay_us(1);
if (spi_test!=start_val_LMP8358_2){
    3f34:	80 91 9d 01 	lds	r24, 0x019D
    3f38:	85 30       	cpi	r24, 0x05	; 5
    3f3a:	19 f0       	breq	.+6      	; 0x3f42 <_Z9RWLMP8358v+0x46>
	WRONG_AMPLIFICATION=1;
    3f3c:	81 e0       	ldi	r24, 0x01	; 1
    3f3e:	80 93 9c 01 	sts	0x019C, r24
    3f42:	08 95       	ret

00003f44 <_Z10dsp_lookupPA2_jj>:
}
}

//function that calculates current temp value from adc readout
double dsp_lookup(uint16_t (*table)[2], uint16_t x){
    3f44:	4f 92       	push	r4
    3f46:	5f 92       	push	r5
    3f48:	6f 92       	push	r6
    3f4a:	7f 92       	push	r7
    3f4c:	af 92       	push	r10
    3f4e:	bf 92       	push	r11
    3f50:	cf 92       	push	r12
    3f52:	df 92       	push	r13
    3f54:	ef 92       	push	r14
    3f56:	ff 92       	push	r15
    3f58:	0f 93       	push	r16
    3f5a:	1f 93       	push	r17
    3f5c:	cf 93       	push	r28
    3f5e:	df 93       	push	r29
	double m=0.0;
	
	//x=round((gain*x)/100); //if gain is changed to something else than the right table
	while(i < TABLE_SIZE ){  
		//find the point where adc value is smaller than table value
		if(x <= table[i][0]){
    3f60:	fc 01       	movw	r30, r24
    3f62:	20 81       	ld	r18, Z
    3f64:	31 81       	ldd	r19, Z+1	; 0x01
    3f66:	26 17       	cp	r18, r22
    3f68:	37 07       	cpc	r19, r23
    3f6a:	f0 f4       	brcc	.+60     	; 0x3fa8 <_Z10dsp_lookupPA2_jj+0x64>
			break;
		}
		i++;
    3f6c:	21 e0       	ldi	r18, 0x01	; 1
    3f6e:	30 e0       	ldi	r19, 0x00	; 0
	double m=0.0;
	
	//x=round((gain*x)/100); //if gain is changed to something else than the right table
	while(i < TABLE_SIZE ){  
		//find the point where adc value is smaller than table value
		if(x <= table[i][0]){
    3f70:	44 81       	ldd	r20, Z+4	; 0x04
    3f72:	55 81       	ldd	r21, Z+5	; 0x05
    3f74:	46 17       	cp	r20, r22
    3f76:	57 07       	cpc	r21, r23
    3f78:	38 f4       	brcc	.+14     	; 0x3f88 <_Z10dsp_lookupPA2_jj+0x44>
			break;
		}
		i++;
    3f7a:	2f 5f       	subi	r18, 0xFF	; 255
    3f7c:	3f 4f       	sbci	r19, 0xFF	; 255
    3f7e:	34 96       	adiw	r30, 0x04	; 4
double dsp_lookup(uint16_t (*table)[2], uint16_t x){
	uint16_t i=0;
	double m=0.0;
	
	//x=round((gain*x)/100); //if gain is changed to something else than the right table
	while(i < TABLE_SIZE ){  
    3f80:	29 32       	cpi	r18, 0x29	; 41
    3f82:	31 05       	cpc	r19, r1
    3f84:	a9 f7       	brne	.-22     	; 0x3f70 <_Z10dsp_lookupPA2_jj+0x2c>
    3f86:	03 c0       	rjmp	.+6      	; 0x3f8e <_Z10dsp_lookupPA2_jj+0x4a>
		if(x <= table[i][0]){
			break;
		}
		i++;
	}
	if ( i == TABLE_SIZE ){   //make sure the point isn't past the end of the table
    3f88:	29 32       	cpi	r18, 0x29	; 41
    3f8a:	31 05       	cpc	r19, r1
    3f8c:	51 f4       	brne	.+20     	; 0x3fa2 <_Z10dsp_lookupPA2_jj+0x5e>
		return table[i-1][1];
    3f8e:	fc 01       	movw	r30, r24
    3f90:	e0 56       	subi	r30, 0x60	; 96
    3f92:	ff 4f       	sbci	r31, 0xFF	; 255
    3f94:	62 81       	ldd	r22, Z+2	; 0x02
    3f96:	73 81       	ldd	r23, Z+3	; 0x03
    3f98:	80 e0       	ldi	r24, 0x00	; 0
    3f9a:	90 e0       	ldi	r25, 0x00	; 0
    3f9c:	0e 94 83 2a 	call	0x5506	; 0x5506 <__floatunsisf>
    3fa0:	4f c0       	rjmp	.+158    	; 0x4040 <_Z10dsp_lookupPA2_jj+0xfc>
	}
	if ( i == 0 ){  //make sure the point isn't before the beginning of the table
    3fa2:	21 15       	cp	r18, r1
    3fa4:	31 05       	cpc	r19, r1
    3fa6:	41 f4       	brne	.+16     	; 0x3fb8 <_Z10dsp_lookupPA2_jj+0x74>
		return table[i][1];
    3fa8:	fc 01       	movw	r30, r24
    3faa:	62 81       	ldd	r22, Z+2	; 0x02
    3fac:	73 81       	ldd	r23, Z+3	; 0x03
    3fae:	80 e0       	ldi	r24, 0x00	; 0
    3fb0:	90 e0       	ldi	r25, 0x00	; 0
    3fb2:	0e 94 83 2a 	call	0x5506	; 0x5506 <__floatunsisf>
    3fb6:	44 c0       	rjmp	.+136    	; 0x4040 <_Z10dsp_lookupPA2_jj+0xfc>
	}
	m = (double)(table[i][1] - table[i-1][1]) / ( table[i][0] - table[i-1][0]); //calculate the slope 87,60C
    3fb8:	f9 01       	movw	r30, r18
    3fba:	ee 0f       	add	r30, r30
    3fbc:	ff 1f       	adc	r31, r31
    3fbe:	ee 0f       	add	r30, r30
    3fc0:	ff 1f       	adc	r31, r31
    3fc2:	8c 01       	movw	r16, r24
    3fc4:	0e 0f       	add	r16, r30
    3fc6:	1f 1f       	adc	r17, r31
    3fc8:	34 97       	sbiw	r30, 0x04	; 4
    3fca:	e8 0f       	add	r30, r24
    3fcc:	f9 1f       	adc	r31, r25
    3fce:	c2 81       	ldd	r28, Z+2	; 0x02
    3fd0:	d3 81       	ldd	r29, Z+3	; 0x03
    3fd2:	a0 80       	ld	r10, Z
    3fd4:	b1 80       	ldd	r11, Z+1	; 0x01
	return (double)(m * (x - table[i-1][0])) + table[i-1][1]; //this is the solution to the point slope formula
    3fd6:	6a 19       	sub	r22, r10
    3fd8:	7b 09       	sbc	r23, r11
    3fda:	80 e0       	ldi	r24, 0x00	; 0
    3fdc:	90 e0       	ldi	r25, 0x00	; 0
    3fde:	0e 94 83 2a 	call	0x5506	; 0x5506 <__floatunsisf>
    3fe2:	6b 01       	movw	r12, r22
    3fe4:	7c 01       	movw	r14, r24
		return table[i-1][1];
	}
	if ( i == 0 ){  //make sure the point isn't before the beginning of the table
		return table[i][1];
	}
	m = (double)(table[i][1] - table[i-1][1]) / ( table[i][0] - table[i-1][0]); //calculate the slope 87,60C
    3fe6:	f8 01       	movw	r30, r16
    3fe8:	62 81       	ldd	r22, Z+2	; 0x02
    3fea:	73 81       	ldd	r23, Z+3	; 0x03
    3fec:	6c 1b       	sub	r22, r28
    3fee:	7d 0b       	sbc	r23, r29
    3ff0:	80 e0       	ldi	r24, 0x00	; 0
    3ff2:	90 e0       	ldi	r25, 0x00	; 0
    3ff4:	0e 94 83 2a 	call	0x5506	; 0x5506 <__floatunsisf>
    3ff8:	2b 01       	movw	r4, r22
    3ffa:	3c 01       	movw	r6, r24
    3ffc:	f8 01       	movw	r30, r16
    3ffe:	60 81       	ld	r22, Z
    4000:	71 81       	ldd	r23, Z+1	; 0x01
    4002:	6a 19       	sub	r22, r10
    4004:	7b 09       	sbc	r23, r11
    4006:	80 e0       	ldi	r24, 0x00	; 0
    4008:	90 e0       	ldi	r25, 0x00	; 0
    400a:	0e 94 83 2a 	call	0x5506	; 0x5506 <__floatunsisf>
    400e:	9b 01       	movw	r18, r22
    4010:	ac 01       	movw	r20, r24
    4012:	c3 01       	movw	r24, r6
    4014:	b2 01       	movw	r22, r4
    4016:	0e 94 ea 29 	call	0x53d4	; 0x53d4 <__divsf3>
    401a:	9b 01       	movw	r18, r22
    401c:	ac 01       	movw	r20, r24
	return (double)(m * (x - table[i-1][0])) + table[i-1][1]; //this is the solution to the point slope formula
    401e:	c7 01       	movw	r24, r14
    4020:	b6 01       	movw	r22, r12
    4022:	0e 94 39 2b 	call	0x5672	; 0x5672 <__mulsf3>
    4026:	6b 01       	movw	r12, r22
    4028:	7c 01       	movw	r14, r24
    402a:	be 01       	movw	r22, r28
    402c:	80 e0       	ldi	r24, 0x00	; 0
    402e:	90 e0       	ldi	r25, 0x00	; 0
    4030:	0e 94 83 2a 	call	0x5506	; 0x5506 <__floatunsisf>
    4034:	9b 01       	movw	r18, r22
    4036:	ac 01       	movw	r20, r24
    4038:	c7 01       	movw	r24, r14
    403a:	b6 01       	movw	r22, r12
    403c:	0e 94 82 29 	call	0x5304	; 0x5304 <__addsf3>
}
    4040:	df 91       	pop	r29
    4042:	cf 91       	pop	r28
    4044:	1f 91       	pop	r17
    4046:	0f 91       	pop	r16
    4048:	ff 90       	pop	r15
    404a:	ef 90       	pop	r14
    404c:	df 90       	pop	r13
    404e:	cf 90       	pop	r12
    4050:	bf 90       	pop	r11
    4052:	af 90       	pop	r10
    4054:	7f 90       	pop	r7
    4056:	6f 90       	pop	r6
    4058:	5f 90       	pop	r5
    405a:	4f 90       	pop	r4
    405c:	08 95       	ret

0000405e <_Z11save_eepromv>:

void save_eeprom(void){
    405e:	84 e6       	ldi	r24, 0x64	; 100
    4060:	90 e0       	ldi	r25, 0x00	; 0
	int justtobesure2=0;
	//write eeprom at start
	while(1){
		justtobesure2++;
		if(eeprom_is_ready()==1) {
    4062:	f9 99       	sbic	0x1f, 1	; 31
    4064:	09 c0       	rjmp	.+18     	; 0x4078 <_Z11save_eepromv+0x1a>
			//update values to current time, so only write if they're not the same as before
			eeprom_update_word(&saved_temperature, TARGET_TEMPERATURE);
    4066:	60 91 be 01 	lds	r22, 0x01BE
    406a:	70 91 bf 01 	lds	r23, 0x01BF
    406e:	80 e0       	ldi	r24, 0x00	; 0
    4070:	90 e0       	ldi	r25, 0x00	; 0
    4072:	0e 94 08 36 	call	0x6c10	; 0x6c10 <__eeupd_word_m328p>
			break;
    4076:	08 95       	ret
    4078:	01 97       	sbiw	r24, 0x01	; 1
		}
		if (justtobesure2>=100){ //failed to write eeprom
    407a:	00 97       	sbiw	r24, 0x00	; 0
    407c:	91 f7       	brne	.-28     	; 0x4062 <_Z11save_eepromv+0x4>
    407e:	08 95       	ret

00004080 <_Z9save_signv>:

void save_sign(void){
	uint8_t startx2=108;
	uint8_t starty2=1;
	
	u8g_DrawVLine(&u8g,startx2+5,starty2,3);
    4080:	23 e0       	ldi	r18, 0x03	; 3
    4082:	41 e0       	ldi	r20, 0x01	; 1
    4084:	61 e7       	ldi	r22, 0x71	; 113
    4086:	84 e8       	ldi	r24, 0x84	; 132
    4088:	92 e0       	ldi	r25, 0x02	; 2
    408a:	0e 94 4d 33 	call	0x669a	; 0x669a <u8g_DrawVLine>
	u8g_DrawHLine(&u8g,startx2+2,starty2+3,7);
    408e:	27 e0       	ldi	r18, 0x07	; 7
    4090:	44 e0       	ldi	r20, 0x04	; 4
    4092:	6e e6       	ldi	r22, 0x6E	; 110
    4094:	84 e8       	ldi	r24, 0x84	; 132
    4096:	92 e0       	ldi	r25, 0x02	; 2
    4098:	0e 94 fe 32 	call	0x65fc	; 0x65fc <u8g_DrawHLine>
	
	u8g_DrawPixel(&u8g,startx2+3,starty2+4);
    409c:	45 e0       	ldi	r20, 0x05	; 5
    409e:	6f e6       	ldi	r22, 0x6F	; 111
    40a0:	84 e8       	ldi	r24, 0x84	; 132
    40a2:	92 e0       	ldi	r25, 0x02	; 2
    40a4:	0e 94 b9 31 	call	0x6372	; 0x6372 <u8g_DrawPixel>
	u8g_DrawPixel(&u8g,startx2+7,starty2+4);
    40a8:	45 e0       	ldi	r20, 0x05	; 5
    40aa:	63 e7       	ldi	r22, 0x73	; 115
    40ac:	84 e8       	ldi	r24, 0x84	; 132
    40ae:	92 e0       	ldi	r25, 0x02	; 2
    40b0:	0e 94 b9 31 	call	0x6372	; 0x6372 <u8g_DrawPixel>
	u8g_DrawPixel(&u8g,startx2+4,starty2+5);
    40b4:	46 e0       	ldi	r20, 0x06	; 6
    40b6:	60 e7       	ldi	r22, 0x70	; 112
    40b8:	84 e8       	ldi	r24, 0x84	; 132
    40ba:	92 e0       	ldi	r25, 0x02	; 2
    40bc:	0e 94 b9 31 	call	0x6372	; 0x6372 <u8g_DrawPixel>
	u8g_DrawPixel(&u8g,startx2+6,starty2+5);
    40c0:	46 e0       	ldi	r20, 0x06	; 6
    40c2:	62 e7       	ldi	r22, 0x72	; 114
    40c4:	84 e8       	ldi	r24, 0x84	; 132
    40c6:	92 e0       	ldi	r25, 0x02	; 2
    40c8:	0e 94 b9 31 	call	0x6372	; 0x6372 <u8g_DrawPixel>
	u8g_DrawPixel(&u8g,startx2+5,starty2+6);
    40cc:	47 e0       	ldi	r20, 0x07	; 7
    40ce:	61 e7       	ldi	r22, 0x71	; 113
    40d0:	84 e8       	ldi	r24, 0x84	; 132
    40d2:	92 e0       	ldi	r25, 0x02	; 2
    40d4:	0e 94 b9 31 	call	0x6372	; 0x6372 <u8g_DrawPixel>
	
	u8g_DrawHLine(&u8g,startx2+4,starty2+8,3);
    40d8:	23 e0       	ldi	r18, 0x03	; 3
    40da:	49 e0       	ldi	r20, 0x09	; 9
    40dc:	60 e7       	ldi	r22, 0x70	; 112
    40de:	84 e8       	ldi	r24, 0x84	; 132
    40e0:	92 e0       	ldi	r25, 0x02	; 2
    40e2:	0e 94 fe 32 	call	0x65fc	; 0x65fc <u8g_DrawHLine>
	u8g_DrawHLine(&u8g,startx2+2,starty2+9,7);
    40e6:	27 e0       	ldi	r18, 0x07	; 7
    40e8:	4a e0       	ldi	r20, 0x0A	; 10
    40ea:	6e e6       	ldi	r22, 0x6E	; 110
    40ec:	84 e8       	ldi	r24, 0x84	; 132
    40ee:	92 e0       	ldi	r25, 0x02	; 2
    40f0:	0e 94 fe 32 	call	0x65fc	; 0x65fc <u8g_DrawHLine>
	u8g_DrawHLine(&u8g,startx2,starty2+10,4);
    40f4:	24 e0       	ldi	r18, 0x04	; 4
    40f6:	4b e0       	ldi	r20, 0x0B	; 11
    40f8:	6c e6       	ldi	r22, 0x6C	; 108
    40fa:	84 e8       	ldi	r24, 0x84	; 132
    40fc:	92 e0       	ldi	r25, 0x02	; 2
    40fe:	0e 94 fe 32 	call	0x65fc	; 0x65fc <u8g_DrawHLine>
	u8g_DrawHLine(&u8g,startx2+7,starty2+10,4);
    4102:	24 e0       	ldi	r18, 0x04	; 4
    4104:	4b e0       	ldi	r20, 0x0B	; 11
    4106:	63 e7       	ldi	r22, 0x73	; 115
    4108:	84 e8       	ldi	r24, 0x84	; 132
    410a:	92 e0       	ldi	r25, 0x02	; 2
    410c:	0e 94 fe 32 	call	0x65fc	; 0x65fc <u8g_DrawHLine>
	u8g_DrawHLine(&u8g,startx2+2,starty2+11,7);
    4110:	27 e0       	ldi	r18, 0x07	; 7
    4112:	4c e0       	ldi	r20, 0x0C	; 12
    4114:	6e e6       	ldi	r22, 0x6E	; 110
    4116:	84 e8       	ldi	r24, 0x84	; 132
    4118:	92 e0       	ldi	r25, 0x02	; 2
    411a:	0e 94 fe 32 	call	0x65fc	; 0x65fc <u8g_DrawHLine>
	u8g_DrawHLine(&u8g,startx2+4,starty2+12,3);
    411e:	23 e0       	ldi	r18, 0x03	; 3
    4120:	4d e0       	ldi	r20, 0x0D	; 13
    4122:	60 e7       	ldi	r22, 0x70	; 112
    4124:	84 e8       	ldi	r24, 0x84	; 132
    4126:	92 e0       	ldi	r25, 0x02	; 2
    4128:	0e 94 fe 32 	call	0x65fc	; 0x65fc <u8g_DrawHLine>
    412c:	08 95       	ret

0000412e <_Z7reversePci>:



// reverses a string 'str' of length 'len'
void reverse(char *str, int len){
	int i=0, j=len-1, temp;
    412e:	9b 01       	movw	r18, r22
    4130:	21 50       	subi	r18, 0x01	; 1
    4132:	31 09       	sbc	r19, r1
	while (i<j){
    4134:	12 16       	cp	r1, r18
    4136:	13 06       	cpc	r1, r19
    4138:	8c f4       	brge	.+34     	; 0x415c <_Z7reversePci+0x2e>
    413a:	dc 01       	movw	r26, r24
    413c:	a6 0f       	add	r26, r22
    413e:	b7 1f       	adc	r27, r23
    4140:	fc 01       	movw	r30, r24



// reverses a string 'str' of length 'len'
void reverse(char *str, int len){
	int i=0, j=len-1, temp;
    4142:	40 e0       	ldi	r20, 0x00	; 0
    4144:	50 e0       	ldi	r21, 0x00	; 0
	while (i<j){
		temp = str[i];
    4146:	80 81       	ld	r24, Z
		str[i] = str[j];
    4148:	9e 91       	ld	r25, -X
    414a:	91 93       	st	Z+, r25
		str[j] = temp;
    414c:	8c 93       	st	X, r24
		i++; j--;
    414e:	4f 5f       	subi	r20, 0xFF	; 255
    4150:	5f 4f       	sbci	r21, 0xFF	; 255
    4152:	21 50       	subi	r18, 0x01	; 1
    4154:	31 09       	sbc	r19, r1


// reverses a string 'str' of length 'len'
void reverse(char *str, int len){
	int i=0, j=len-1, temp;
	while (i<j){
    4156:	42 17       	cp	r20, r18
    4158:	53 07       	cpc	r21, r19
    415a:	ac f3       	brlt	.-22     	; 0x4146 <_Z7reversePci+0x18>
    415c:	08 95       	ret

0000415e <_Z8intToStriPci>:
	}
}
// Converts a given integer x to string str[].  d is the number
// of digits required in output. If d is more than the number
// of digits in x, then 0s are added at the beginning.
int intToStr(int x, char str[], int d) {
    415e:	ef 92       	push	r14
    4160:	ff 92       	push	r15
    4162:	0f 93       	push	r16
    4164:	1f 93       	push	r17
    4166:	cf 93       	push	r28
    4168:	df 93       	push	r29
    416a:	8b 01       	movw	r16, r22
    416c:	7a 01       	movw	r14, r20

	int i = 0;
	while (x) {
    416e:	00 97       	sbiw	r24, 0x00	; 0
    4170:	81 f0       	breq	.+32     	; 0x4192 <_Z8intToStriPci+0x34>
    4172:	fb 01       	movw	r30, r22
// Converts a given integer x to string str[].  d is the number
// of digits required in output. If d is more than the number
// of digits in x, then 0s are added at the beginning.
int intToStr(int x, char str[], int d) {

	int i = 0;
    4174:	c0 e0       	ldi	r28, 0x00	; 0
    4176:	d0 e0       	ldi	r29, 0x00	; 0
	while (x) {
		str[i++] = (x%10) + '0';
    4178:	2a e0       	ldi	r18, 0x0A	; 10
    417a:	30 e0       	ldi	r19, 0x00	; 0
    417c:	21 96       	adiw	r28, 0x01	; 1
    417e:	b9 01       	movw	r22, r18
    4180:	0e 94 aa 35 	call	0x6b54	; 0x6b54 <__divmodhi4>
    4184:	80 5d       	subi	r24, 0xD0	; 208
    4186:	81 93       	st	Z+, r24
		x = x/10;
    4188:	86 2f       	mov	r24, r22
    418a:	97 2f       	mov	r25, r23
// of digits required in output. If d is more than the number
// of digits in x, then 0s are added at the beginning.
int intToStr(int x, char str[], int d) {

	int i = 0;
	while (x) {
    418c:	00 97       	sbiw	r24, 0x00	; 0
    418e:	b1 f7       	brne	.-20     	; 0x417c <_Z8intToStriPci+0x1e>
    4190:	02 c0       	rjmp	.+4      	; 0x4196 <_Z8intToStriPci+0x38>
// Converts a given integer x to string str[].  d is the number
// of digits required in output. If d is more than the number
// of digits in x, then 0s are added at the beginning.
int intToStr(int x, char str[], int d) {

	int i = 0;
    4192:	c0 e0       	ldi	r28, 0x00	; 0
    4194:	d0 e0       	ldi	r29, 0x00	; 0
		str[i++] = (x%10) + '0';
		x = x/10;
	}
	// If number of digits required is more, then
	// add 0s at the beginning
	while (i < d)
    4196:	ce 15       	cp	r28, r14
    4198:	df 05       	cpc	r29, r15
    419a:	64 f4       	brge	.+24     	; 0x41b4 <_Z8intToStriPci+0x56>
    419c:	f8 01       	movw	r30, r16
    419e:	ec 0f       	add	r30, r28
    41a0:	fd 1f       	adc	r31, r29
    41a2:	c8 01       	movw	r24, r16
    41a4:	8e 0d       	add	r24, r14
    41a6:	9f 1d       	adc	r25, r15
	str[i++] = '0';
    41a8:	20 e3       	ldi	r18, 0x30	; 48
    41aa:	21 93       	st	Z+, r18
		str[i++] = (x%10) + '0';
		x = x/10;
	}
	// If number of digits required is more, then
	// add 0s at the beginning
	while (i < d)
    41ac:	e8 17       	cp	r30, r24
    41ae:	f9 07       	cpc	r31, r25
    41b0:	e1 f7       	brne	.-8      	; 0x41aa <_Z8intToStriPci+0x4c>
    41b2:	e7 01       	movw	r28, r14
	str[i++] = '0';
	reverse(str, i);
    41b4:	be 01       	movw	r22, r28
    41b6:	c8 01       	movw	r24, r16
    41b8:	0e 94 97 20 	call	0x412e	; 0x412e <_Z7reversePci>
	str[i] = '\0';
    41bc:	f8 01       	movw	r30, r16
    41be:	ec 0f       	add	r30, r28
    41c0:	fd 1f       	adc	r31, r29
    41c2:	10 82       	st	Z, r1
	
	
	return i;
}
    41c4:	ce 01       	movw	r24, r28
    41c6:	df 91       	pop	r29
    41c8:	cf 91       	pop	r28
    41ca:	1f 91       	pop	r17
    41cc:	0f 91       	pop	r16
    41ce:	ff 90       	pop	r15
    41d0:	ef 90       	pop	r14
    41d2:	08 95       	ret

000041d4 <_Z4ftoafPci>:
// Converts a floating point number to string.
void ftoa(float n, char *res, int afterpoint) {
    41d4:	2f 92       	push	r2
    41d6:	3f 92       	push	r3
    41d8:	4f 92       	push	r4
    41da:	5f 92       	push	r5
    41dc:	6f 92       	push	r6
    41de:	7f 92       	push	r7
    41e0:	8f 92       	push	r8
    41e2:	9f 92       	push	r9
    41e4:	af 92       	push	r10
    41e6:	bf 92       	push	r11
    41e8:	cf 92       	push	r12
    41ea:	df 92       	push	r13
    41ec:	ef 92       	push	r14
    41ee:	ff 92       	push	r15
    41f0:	0f 93       	push	r16
    41f2:	1f 93       	push	r17
    41f4:	cf 93       	push	r28
    41f6:	df 93       	push	r29
    41f8:	6b 01       	movw	r12, r22
    41fa:	7c 01       	movw	r14, r24
    41fc:	ea 01       	movw	r28, r20
    41fe:	89 01       	movw	r16, r18
	// Extract integer part
	int ipart = (int)n;
    4200:	0e 94 52 2a 	call	0x54a4	; 0x54a4 <__fixsfsi>
    4204:	4b 01       	movw	r8, r22
    4206:	5c 01       	movw	r10, r24
	// Extract floating part
	float fpart =(float) (n - (float)ipart);
	// convert integer part to string
	//int i = intToStr(ipart, res, 0);
	int i = intToStr(ipart, res, 1); //forces to show 0 at the beginning
    4208:	41 e0       	ldi	r20, 0x01	; 1
    420a:	50 e0       	ldi	r21, 0x00	; 0
    420c:	be 01       	movw	r22, r28
    420e:	c4 01       	movw	r24, r8
    4210:	0e 94 af 20 	call	0x415e	; 0x415e <_Z8intToStriPci>
    4214:	1c 01       	movw	r2, r24
	// check for display option after point
	if (afterpoint != 0){
    4216:	01 15       	cp	r16, r1
    4218:	11 05       	cpc	r17, r1
    421a:	b1 f1       	breq	.+108    	; 0x4288 <_Z4ftoafPci+0xb4>
		res[i] = '.';  // add dot
    421c:	fe 01       	movw	r30, r28
    421e:	e8 0f       	add	r30, r24
    4220:	f9 1f       	adc	r31, r25
    4222:	8e e2       	ldi	r24, 0x2E	; 46
    4224:	80 83       	st	Z, r24
		// Get the value of fraction part upto given no.
		// of points after dot. The third parameter is needed
		// to handle cases like 233.007
		fpart = fpart * pow(10, afterpoint);
    4226:	b8 01       	movw	r22, r16
    4228:	88 27       	eor	r24, r24
    422a:	77 fd       	sbrc	r23, 7
    422c:	80 95       	com	r24
    422e:	98 2f       	mov	r25, r24
    4230:	0e 94 85 2a 	call	0x550a	; 0x550a <__floatsisf>
    4234:	9b 01       	movw	r18, r22
    4236:	ac 01       	movw	r20, r24
    4238:	60 e0       	ldi	r22, 0x00	; 0
    423a:	70 e0       	ldi	r23, 0x00	; 0
    423c:	80 e2       	ldi	r24, 0x20	; 32
    423e:	91 e4       	ldi	r25, 0x41	; 65
    4240:	0e 94 9c 2b 	call	0x5738	; 0x5738 <pow>
    4244:	2b 01       	movw	r4, r22
    4246:	3c 01       	movw	r6, r24
// Converts a floating point number to string.
void ftoa(float n, char *res, int afterpoint) {
	// Extract integer part
	int ipart = (int)n;
	// Extract floating part
	float fpart =(float) (n - (float)ipart);
    4248:	b4 01       	movw	r22, r8
    424a:	88 27       	eor	r24, r24
    424c:	77 fd       	sbrc	r23, 7
    424e:	80 95       	com	r24
    4250:	98 2f       	mov	r25, r24
    4252:	0e 94 85 2a 	call	0x550a	; 0x550a <__floatsisf>
    4256:	9b 01       	movw	r18, r22
    4258:	ac 01       	movw	r20, r24
    425a:	c7 01       	movw	r24, r14
    425c:	b6 01       	movw	r22, r12
    425e:	0e 94 81 29 	call	0x5302	; 0x5302 <__subsf3>
    4262:	9b 01       	movw	r18, r22
    4264:	ac 01       	movw	r20, r24
		res[i] = '.';  // add dot
		// Get the value of fraction part upto given no.
		// of points after dot. The third parameter is needed
		// to handle cases like 233.007
		fpart = fpart * pow(10, afterpoint);
		intToStr((int)fpart, res + i + 1, afterpoint);
    4266:	8f ef       	ldi	r24, 0xFF	; 255
    4268:	28 1a       	sub	r2, r24
    426a:	38 0a       	sbc	r3, r24
    426c:	c2 0d       	add	r28, r2
    426e:	d3 1d       	adc	r29, r3
	if (afterpoint != 0){
		res[i] = '.';  // add dot
		// Get the value of fraction part upto given no.
		// of points after dot. The third parameter is needed
		// to handle cases like 233.007
		fpart = fpart * pow(10, afterpoint);
    4270:	c3 01       	movw	r24, r6
    4272:	b2 01       	movw	r22, r4
    4274:	0e 94 39 2b 	call	0x5672	; 0x5672 <__mulsf3>
		intToStr((int)fpart, res + i + 1, afterpoint);
    4278:	0e 94 52 2a 	call	0x54a4	; 0x54a4 <__fixsfsi>
    427c:	dc 01       	movw	r26, r24
    427e:	cb 01       	movw	r24, r22
    4280:	a8 01       	movw	r20, r16
    4282:	be 01       	movw	r22, r28
    4284:	0e 94 af 20 	call	0x415e	; 0x415e <_Z8intToStriPci>
	}
    4288:	df 91       	pop	r29
    428a:	cf 91       	pop	r28
    428c:	1f 91       	pop	r17
    428e:	0f 91       	pop	r16
    4290:	ff 90       	pop	r15
    4292:	ef 90       	pop	r14
    4294:	df 90       	pop	r13
    4296:	cf 90       	pop	r12
    4298:	bf 90       	pop	r11
    429a:	af 90       	pop	r10
    429c:	9f 90       	pop	r9
    429e:	8f 90       	pop	r8
    42a0:	7f 90       	pop	r7
    42a2:	6f 90       	pop	r6
    42a4:	5f 90       	pop	r5
    42a6:	4f 90       	pop	r4
    42a8:	3f 90       	pop	r3
    42aa:	2f 90       	pop	r2
    42ac:	08 95       	ret

000042ae <_Z9u8g_setupv>:
uint16_t TARGET_TEMPERATUREgah=0;		

#include "Global_functions.h"
#include "Thermotable.h"

void u8g_setup() {
    42ae:	0f 93       	push	r16
    42b0:	cf 93       	push	r28
	// A0: PD7 --> PN(3,7) //DC!!
	// RST: PB0,  --> PN(1,0)
	// Arguments for u8g_InitHWSPI are: CS, A0, Reset
	//this one is SSD1306
		
	u8g_InitHWSPI(&u8g, &u8g_dev_ssd1306_128x64_hw_spi,PN(3,6),PN(3,7), PN(1,0));
    42b2:	60 e0       	ldi	r22, 0x00	; 0
    42b4:	81 e0       	ldi	r24, 0x01	; 1
    42b6:	0e 94 3c 2d 	call	0x5a78	; 0x5a78 <u8g_Pin>
    42ba:	08 2f       	mov	r16, r24
    42bc:	67 e0       	ldi	r22, 0x07	; 7
    42be:	83 e0       	ldi	r24, 0x03	; 3
    42c0:	0e 94 3c 2d 	call	0x5a78	; 0x5a78 <u8g_Pin>
    42c4:	c8 2f       	mov	r28, r24
    42c6:	66 e0       	ldi	r22, 0x06	; 6
    42c8:	83 e0       	ldi	r24, 0x03	; 3
    42ca:	0e 94 3c 2d 	call	0x5a78	; 0x5a78 <u8g_Pin>
    42ce:	2c 2f       	mov	r18, r28
    42d0:	48 2f       	mov	r20, r24
    42d2:	63 e5       	ldi	r22, 0x53	; 83
    42d4:	71 e0       	ldi	r23, 0x01	; 1
    42d6:	84 e8       	ldi	r24, 0x84	; 132
    42d8:	92 e0       	ldi	r25, 0x02	; 2
    42da:	0e 94 a1 30 	call	0x6142	; 0x6142 <u8g_InitHWSPI>
	//u8g_InitHWSPI(&u8g, &u8g_dev_sh1106_128x64_hw_spi,U8G_PIN_NONE,PN(1,0), PN(3,7));
	// u8g_SetRot180(&u8g); //flip screen, if required
	//u8g_SetColorIndex(&u8g, 1);
}
    42de:	cf 91       	pop	r28
    42e0:	0f 91       	pop	r16
    42e2:	08 95       	ret

000042e4 <_Z5setupv>:
void setup()
{	
	//pd1=encoders button (input), pd2= encoders B (input), pd3= encoders A (input),
	//pd4=speaker(out), pd5= instrumentation amp SPI select (active low)(out),
	//pd6=OLED displays SPI select(active low)(out), pd7=display D/C(out)
	DDRD=0b11110000;
    42e4:	80 ef       	ldi	r24, 0xF0	; 240
    42e6:	8a b9       	out	0x0a, r24	; 10
	PORTD=0b01100000; 
    42e8:	80 e6       	ldi	r24, 0x60	; 96
    42ea:	8b b9       	out	0x0b, r24	; 11
		
	//pb0=reset display(out), pb1= solder tip PWM (out), pb2=ss(out and high),
	//pb3 =MOSI(out), pb4= MISO(in), pb5=sck(out)
	DDRB= 0b00101111;
    42ec:	8f e2       	ldi	r24, 0x2F	; 47
    42ee:	84 b9       	out	0x04, r24	; 4
	PORTB=0b00000100;
    42f0:	24 e0       	ldi	r18, 0x04	; 4
    42f2:	25 b9       	out	0x05, r18	; 5
	
	//PC1=current in (in), pc2=vcc 24v (6.2/(51+6.2)) resistance divider (in)
	//PC4= non-volatile rheostat MCP4022 UD(out), PC5= non-volatile rheostat CS(out),
	DDRC =0b00110000;
    42f4:	80 e3       	ldi	r24, 0x30	; 48
    42f6:	87 b9       	out	0x07, r24	; 7
	PORTC=0b00000000; //output 0 and input tri-state
    42f8:	18 b8       	out	0x08, r1	; 8
	
	//ADC6 is thermal, ADC1 is current value, ADC2 is input voltage (24v)  
	ADMUX=0b01000110; //AVcc reference, 1nF cap in Aref pin, ADC6 thermal
    42fa:	86 e4       	ldi	r24, 0x46	; 70
    42fc:	80 93 7c 00 	sts	0x007C, r24
	ADCSRA=0b11000111; //with 128 clk division from 20MHz is 156.25khz, should be between 50-200khz to get max resolution
    4300:	87 ec       	ldi	r24, 0xC7	; 199
    4302:	80 93 7a 00 	sts	0x007A, r24
	
	//ICR1 is the PWM counter max value, overflow(interrupt) at top, set (new) value in bot
	ICR1  = 2048; //max value of the counter
    4306:	80 e0       	ldi	r24, 0x00	; 0
    4308:	98 e0       	ldi	r25, 0x08	; 8
    430a:	90 93 87 00 	sts	0x0087, r25
    430e:	80 93 86 00 	sts	0x0086, r24
	OCR1A = 0; //zero at start
    4312:	10 92 89 00 	sts	0x0089, r1
    4316:	10 92 88 00 	sts	0x0088, r1
	TCCR1A = 0b10000010;  //fast PWM (mode 1110, ICR1 controls max period)
    431a:	82 e8       	ldi	r24, 0x82	; 130
    431c:	80 93 80 00 	sts	0x0080, r24
	TCCR1B = 0b00011100;  //prescale by 256 = total freq is 20MHz/(256*2048)= 38.14Hz < (100Hz/2) OK!
    4320:	8c e1       	ldi	r24, 0x1C	; 28
    4322:	80 93 81 00 	sts	0x0081, r24
	TIMSK1 = 0b00000010;  //compare match A interrupts, then OCR1A=TCNT1 reads current temperature and calculates new value to be set for the PWM
    4326:	82 e0       	ldi	r24, 0x02	; 2
    4328:	80 93 6f 00 	sts	0x006F, r24
		
	//OCR0A timer is for time calculation
	//output is 20MHz/(256*125)=1.6ms tick, 1sec every 625ticks
	OCR0A = 124; //runs to value 0:124, to get exact ms
    432c:	9c e7       	ldi	r25, 0x7C	; 124
    432e:	97 bd       	out	0x27, r25	; 39
	TCCR0A=0b00000010; //OCR0A compare match
    4330:	84 bd       	out	0x24, r24	; 36
	TCCR0B = 0b10000100; //force compare match A, prescaler to 256
    4332:	94 e8       	ldi	r25, 0x84	; 132
    4334:	95 bd       	out	0x25, r25	; 37
	TIMSK0= 0b00000010; //masked compare match A
    4336:	80 93 6e 00 	sts	0x006E, r24
	//TCNT0 = 0x00; //set timer to 0
	
	//external interrupts
	EICRA=0b00000101; //any logical change generates interrupts
    433a:	95 e0       	ldi	r25, 0x05	; 5
    433c:	90 93 69 00 	sts	0x0069, r25
	EIMSK=0b00000011; //mask register
    4340:	93 e0       	ldi	r25, 0x03	; 3
    4342:	9d bb       	out	0x1d, r25	; 29
	//EIFR=0b00000000; //set interrupt flags to zero
	
	///PCINT17, pd1 or encoder button interrupt mask
	PCICR=0b00000100; //level change causes interrupt pins PCINT24-16
    4344:	20 93 68 00 	sts	0x0068, r18
	PCMSK2=0b00000010; //PCINT17 masked
    4348:	80 93 6d 00 	sts	0x006D, r24
    434c:	08 95       	ret

0000434e <main>:
	
}

int main(void){
    434e:	cf 93       	push	r28
    4350:	df 93       	push	r29
    4352:	cd b7       	in	r28, 0x3d	; 61
    4354:	de b7       	in	r29, 0x3e	; 62
    4356:	e0 97       	sbiw	r28, 0x30	; 48
    4358:	0f b6       	in	r0, 0x3f	; 63
    435a:	f8 94       	cli
    435c:	de bf       	out	0x3e, r29	; 62
    435e:	0f be       	out	0x3f, r0	; 63
    4360:	cd bf       	out	0x3d, r28	; 61
	setup();
    4362:	0e 94 72 21 	call	0x42e4	; 0x42e4 <_Z5setupv>
		delay_ms(1000); //wait 1 sec
		
	}
	*/
	//for hardware spi to work, have to redo these here
	DDRB = 0b00101111; //DDRB= 0b00101111;
    4366:	8f e2       	ldi	r24, 0x2F	; 47
    4368:	84 b9       	out	0x04, r24	; 4
	PORTB = 0b00000101; //output 0 and input tri-state
    436a:	85 e0       	ldi	r24, 0x05	; 5
    436c:	85 b9       	out	0x05, r24	; 5
	//Hardware spi enabled, clk/16 mode, master mode, LMP8358 will require min 200ns for clk period
	SPCR=0b01010010; //0b01010001; //rising edge sampling
    436e:	82 e5       	ldi	r24, 0x52	; 82
    4370:	8c bd       	out	0x2c, r24	; 44
	SPSR=0b00000000;
    4372:	1d bc       	out	0x2d, r1	; 45
	RWLMP8358(); //sets right values to the instrumentation amplifier
    4374:	0e 94 7e 1f 	call	0x3efc	; 0x3efc <_Z9RWLMP8358v>
	//SPCR=0b01010000; //4x
	u8g_setup();
    4378:	0e 94 57 21 	call	0x42ae	; 0x42ae <_Z9u8g_setupv>
    437c:	84 e6       	ldi	r24, 0x64	; 100
    437e:	90 e0       	ldi	r25, 0x00	; 0
	
	//read eeprom at start
	int justtobesure3=0;
	while(1){
		justtobesure3++;
		if(eeprom_is_ready()==1) {
    4380:	f9 99       	sbic	0x1f, 1	; 31
    4382:	09 c0       	rjmp	.+18     	; 0x4396 <main+0x48>
			//read values
			TARGET_TEMPERATURE=eeprom_read_word(&saved_temperature);
    4384:	80 e0       	ldi	r24, 0x00	; 0
    4386:	90 e0       	ldi	r25, 0x00	; 0
    4388:	0e 94 02 36 	call	0x6c04	; 0x6c04 <__eerd_word_m328p>
    438c:	90 93 bf 01 	sts	0x01BF, r25
    4390:	80 93 be 01 	sts	0x01BE, r24
			break;
    4394:	06 c0       	rjmp	.+12     	; 0x43a2 <main+0x54>
    4396:	01 97       	sbiw	r24, 0x01	; 1
		}
		if (justtobesure3>=100){ //failed to read eeprom
    4398:	00 97       	sbiw	r24, 0x00	; 0
    439a:	91 f7       	brne	.-28     	; 0x4380 <main+0x32>
			keep_heater_off=1;
    439c:	81 e0       	ldi	r24, 0x01	; 1
    439e:	80 93 b9 01 	sts	0x01B9, r24
			break;
		}
	}
	
	if(TARGET_TEMPERATURE <= 0 || TARGET_TEMPERATURE > 500){
    43a2:	80 91 be 01 	lds	r24, 0x01BE
    43a6:	90 91 bf 01 	lds	r25, 0x01BF
    43aa:	89 2b       	or	r24, r25
    43ac:	41 f0       	breq	.+16     	; 0x43be <main+0x70>
    43ae:	80 91 be 01 	lds	r24, 0x01BE
    43b2:	90 91 bf 01 	lds	r25, 0x01BF
    43b6:	85 3f       	cpi	r24, 0xF5	; 245
    43b8:	91 40       	sbci	r25, 0x01	; 1
    43ba:	08 f4       	brcc	.+2      	; 0x43be <main+0x70>
    43bc:	cc c3       	rjmp	.+1944   	; 0x4b56 <main+0x808>
		TARGET_TEMPERATURE=350;
    43be:	8e e5       	ldi	r24, 0x5E	; 94
    43c0:	91 e0       	ldi	r25, 0x01	; 1
    43c2:	90 93 bf 01 	sts	0x01BF, r25
    43c6:	80 93 be 01 	sts	0x01BE, r24
    43ca:	c5 c3       	rjmp	.+1930   	; 0x4b56 <main+0x808>
	}
	
	for (int i=0;i< I_memory-1;i++){
		mean_I_err[i]=0;
    43cc:	fc 01       	movw	r30, r24
    43ce:	ee 0f       	add	r30, r30
    43d0:	ff 1f       	adc	r31, r31
    43d2:	ee 0f       	add	r30, r30
    43d4:	ff 1f       	adc	r31, r31
    43d6:	e2 53       	subi	r30, 0x32	; 50
    43d8:	fe 4f       	sbci	r31, 0xFE	; 254
    43da:	10 82       	st	Z, r1
    43dc:	11 82       	std	Z+1, r1	; 0x01
    43de:	12 82       	std	Z+2, r1	; 0x02
    43e0:	13 82       	std	Z+3, r1	; 0x03
	
	if(TARGET_TEMPERATURE <= 0 || TARGET_TEMPERATURE > 500){
		TARGET_TEMPERATURE=350;
	}
	
	for (int i=0;i< I_memory-1;i++){
    43e2:	01 96       	adiw	r24, 0x01	; 1
    43e4:	87 32       	cpi	r24, 0x27	; 39
    43e6:	91 05       	cpc	r25, r1
    43e8:	89 f7       	brne	.-30     	; 0x43cc <main+0x7e>
		mean_I_err[i]=0;
	}
	

	cli(); //disable interrupts //was at beginning of system setup, start PWM can be glitchy if not next to each other
    43ea:	f8 94       	cli
	sei(); //enable interrupts
    43ec:	78 94       	sei
	
	long double modulo=0;	
	char current1[6]={0,0,0,0,0};
    43ee:	86 e0       	ldi	r24, 0x06	; 6
    43f0:	fe 01       	movw	r30, r28
    43f2:	bb 96       	adiw	r30, 0x2b	; 43
    43f4:	df 01       	movw	r26, r30
    43f6:	28 2f       	mov	r18, r24
    43f8:	1d 92       	st	X+, r1
    43fa:	2a 95       	dec	r18
    43fc:	e9 f7       	brne	.-6      	; 0x43f8 <main+0xaa>
	char voltage1[6]={0,0,0,0,0};
    43fe:	36 97       	sbiw	r30, 0x06	; 6
    4400:	df 01       	movw	r26, r30
    4402:	28 2f       	mov	r18, r24
    4404:	1d 92       	st	X+, r1
    4406:	2a 95       	dec	r18
    4408:	e9 f7       	brne	.-6      	; 0x4404 <main+0xb6>
	char power1[6]={0,0,0,0,0};
    440a:	36 97       	sbiw	r30, 0x06	; 6
    440c:	df 01       	movw	r26, r30
    440e:	28 2f       	mov	r18, r24
    4410:	1d 92       	st	X+, r1
    4412:	2a 95       	dec	r18
    4414:	e9 f7       	brne	.-6      	; 0x4410 <main+0xc2>
	char temp1[6]={0,0,0,0,0};
    4416:	36 97       	sbiw	r30, 0x06	; 6
    4418:	df 01       	movw	r26, r30
    441a:	28 2f       	mov	r18, r24
    441c:	1d 92       	st	X+, r1
    441e:	2a 95       	dec	r18
    4420:	e9 f7       	brne	.-6      	; 0x441c <main+0xce>
	//char temp11[6]={0,0,0,0,0};
	char temp2[6]={0,0,0,0,0};
    4422:	36 97       	sbiw	r30, 0x06	; 6
    4424:	df 01       	movw	r26, r30
    4426:	28 2f       	mov	r18, r24
    4428:	1d 92       	st	X+, r1
    442a:	2a 95       	dec	r18
    442c:	e9 f7       	brne	.-6      	; 0x4428 <main+0xda>
	//char temp21[6]={0,0,0,0,0};
		
	//char spi_testing[6]={0,0,0,0,0};	
	//intToStr(spi_test, spi_testing, 0);		
		
	char wtf[6]={0,0,0,0,0};
    442e:	36 97       	sbiw	r30, 0x06	; 6
    4430:	df 01       	movw	r26, r30
    4432:	28 2f       	mov	r18, r24
    4434:	1d 92       	st	X+, r1
    4436:	2a 95       	dec	r18
    4438:	e9 f7       	brne	.-6      	; 0x4434 <main+0xe6>
	char wtf2[6]={0,0,0,0,0};
    443a:	36 97       	sbiw	r30, 0x06	; 6
    443c:	df 01       	movw	r26, r30
    443e:	28 2f       	mov	r18, r24
    4440:	1d 92       	st	X+, r1
    4442:	2a 95       	dec	r18
    4444:	e9 f7       	brne	.-6      	; 0x4440 <main+0xf2>
	char wtf3[6]={0,0,0,0,0};
    4446:	36 97       	sbiw	r30, 0x06	; 6
    4448:	df 01       	movw	r26, r30
    444a:	1d 92       	st	X+, r1
    444c:	8a 95       	dec	r24
    444e:	e9 f7       	brne	.-6      	; 0x444a <main+0xfc>
		if(cmd_pulse==1){
			delay_ms(10);
			cmd_pulse=0;
						
			ADMUX=0b01000001; //check current ADC1
			ADCSRA |= (1 << ADSC);	 // start an ADC conversion
    4450:	0a e7       	ldi	r16, 0x7A	; 122
    4452:	10 e0       	ldi	r17, 0x00	; 0
			ftoa(m, wtf3, 3);
					
		}
		
		
		memset(&temp2[0], 0, sizeof( temp2));
    4454:	4e 01       	movw	r8, r28
    4456:	b3 e1       	ldi	r27, 0x13	; 19
    4458:	8b 0e       	add	r8, r27
    445a:	91 1c       	adc	r9, r1
		TARGET_TEMPERATUREgah=TARGET_TEMPERATURE;
		intToStr(TARGET_TEMPERATUREgah, temp2, 0);
		
		memset(&temp1[0], 0, sizeof( temp1));
    445c:	1e 01       	movw	r2, r28
    445e:	e9 e1       	ldi	r30, 0x19	; 25
    4460:	2e 0e       	add	r2, r30
    4462:	31 1c       	adc	r3, r1
			temperature_valuegah-=modulo;
		}

		ftoa(temperature_valuegah, temp1, 0);
		
		memset(& power1[0], 0, sizeof(power1));
    4464:	5e 01       	movw	r10, r28
    4466:	ff e1       	ldi	r31, 0x1F	; 31
    4468:	af 0e       	add	r10, r31
    446a:	b1 1c       	adc	r11, r1
	char wtf2[6]={0,0,0,0,0};
	char wtf3[6]={0,0,0,0,0};
	
    while(1)
    {
		if(cmd_pulse==1){
    446c:	80 91 bb 01 	lds	r24, 0x01BB
    4470:	81 30       	cpi	r24, 0x01	; 1
    4472:	09 f0       	breq	.+2      	; 0x4476 <main+0x128>
    4474:	b5 c1       	rjmp	.+874    	; 0x47e0 <main+0x492>
			delay_ms(10);
    4476:	8a e0       	ldi	r24, 0x0A	; 10
    4478:	90 e0       	ldi	r25, 0x00	; 0
    447a:	0e 94 ed 1e 	call	0x3dda	; 0x3dda <_Z8delay_msi>
			cmd_pulse=0;
    447e:	10 92 bb 01 	sts	0x01BB, r1
						
			ADMUX=0b01000001; //check current ADC1
    4482:	81 e4       	ldi	r24, 0x41	; 65
    4484:	ac e7       	ldi	r26, 0x7C	; 124
    4486:	b0 e0       	ldi	r27, 0x00	; 0
    4488:	8c 93       	st	X, r24
			ADCSRA |= (1 << ADSC);	 // start an ADC conversion
    448a:	f8 01       	movw	r30, r16
    448c:	80 81       	ld	r24, Z
    448e:	80 64       	ori	r24, 0x40	; 64
    4490:	80 83       	st	Z, r24
			while(ADCSRA & _BV(ADSC));    // wait until conversion is complete
    4492:	d8 01       	movw	r26, r16
    4494:	8c 91       	ld	r24, X
    4496:	86 fd       	sbrc	r24, 6
    4498:	fc cf       	rjmp	.-8      	; 0x4492 <main+0x144>
			current_adc1=ADC;
    449a:	e8 e7       	ldi	r30, 0x78	; 120
    449c:	f0 e0       	ldi	r31, 0x00	; 0
    449e:	80 81       	ld	r24, Z
    44a0:	91 81       	ldd	r25, Z+1	; 0x01
    44a2:	90 93 a5 01 	sts	0x01A5, r25
    44a6:	80 93 a4 01 	sts	0x01A4, r24
			ADMUX=0b01000001; //check current ADC1
    44aa:	81 e4       	ldi	r24, 0x41	; 65
    44ac:	ac e7       	ldi	r26, 0x7C	; 124
    44ae:	b0 e0       	ldi	r27, 0x00	; 0
    44b0:	8c 93       	st	X, r24
			ADCSRA |= (1 << ADSC);	 // start an ADC conversion
    44b2:	f8 01       	movw	r30, r16
    44b4:	80 81       	ld	r24, Z
    44b6:	80 64       	ori	r24, 0x40	; 64
    44b8:	80 83       	st	Z, r24
			while(ADCSRA & _BV(ADSC));    // wait until conversion is complete
    44ba:	d8 01       	movw	r26, r16
    44bc:	8c 91       	ld	r24, X
    44be:	86 fd       	sbrc	r24, 6
    44c0:	fc cf       	rjmp	.-8      	; 0x44ba <main+0x16c>
			current_adc=(ADC+current_adc1)/2;
    44c2:	e8 e7       	ldi	r30, 0x78	; 120
    44c4:	f0 e0       	ldi	r31, 0x00	; 0
    44c6:	20 81       	ld	r18, Z
    44c8:	31 81       	ldd	r19, Z+1	; 0x01
    44ca:	80 91 a4 01 	lds	r24, 0x01A4
    44ce:	90 91 a5 01 	lds	r25, 0x01A5
    44d2:	82 0f       	add	r24, r18
    44d4:	93 1f       	adc	r25, r19
    44d6:	96 95       	lsr	r25
    44d8:	87 95       	ror	r24
    44da:	90 93 a7 01 	sts	0x01A7, r25
    44de:	80 93 a6 01 	sts	0x01A6, r24
			//with ACS712 20 amp version
			//y=0.1v/A+2.5v, ADC value is 1024/5v=204.8/v
			//(adc-(1024/5v*2.5))*(1/(0.1*1024/5v))
			current_value=abs(current_adc-512)*0.048828125;//accuracy is 49mA  513
    44e2:	92 50       	subi	r25, 0x02	; 2
    44e4:	bc 01       	movw	r22, r24
    44e6:	99 23       	and	r25, r25
    44e8:	24 f4       	brge	.+8      	; 0x44f2 <main+0x1a4>
    44ea:	66 27       	eor	r22, r22
    44ec:	77 27       	eor	r23, r23
    44ee:	68 1b       	sub	r22, r24
    44f0:	79 0b       	sbc	r23, r25
    44f2:	88 27       	eor	r24, r24
    44f4:	77 fd       	sbrc	r23, 7
    44f6:	80 95       	com	r24
    44f8:	98 2f       	mov	r25, r24
    44fa:	0e 94 85 2a 	call	0x550a	; 0x550a <__floatsisf>
    44fe:	20 e0       	ldi	r18, 0x00	; 0
    4500:	30 e0       	ldi	r19, 0x00	; 0
    4502:	48 e4       	ldi	r20, 0x48	; 72
    4504:	5d e3       	ldi	r21, 0x3D	; 61
    4506:	0e 94 39 2b 	call	0x5672	; 0x5672 <__mulsf3>
    450a:	6b 01       	movw	r12, r22
    450c:	7c 01       	movw	r14, r24
    450e:	60 93 98 01 	sts	0x0198, r22
    4512:	70 93 99 01 	sts	0x0199, r23
    4516:	80 93 9a 01 	sts	0x019A, r24
    451a:	90 93 9b 01 	sts	0x019B, r25
			if(current_value < 0 ){
    451e:	20 e0       	ldi	r18, 0x00	; 0
    4520:	30 e0       	ldi	r19, 0x00	; 0
    4522:	a9 01       	movw	r20, r18
    4524:	0e 94 e6 29 	call	0x53cc	; 0x53cc <__cmpsf2>
    4528:	88 23       	and	r24, r24
    452a:	4c f4       	brge	.+18     	; 0x453e <main+0x1f0>
				current_value=(double)0.0;
    452c:	10 92 98 01 	sts	0x0198, r1
    4530:	10 92 99 01 	sts	0x0199, r1
    4534:	10 92 9a 01 	sts	0x019A, r1
    4538:	10 92 9b 01 	sts	0x019B, r1
    453c:	30 c0       	rjmp	.+96     	; 0x459e <main+0x250>
			}
			
			if (current_value > 8 && current_value < 20){
    453e:	20 e0       	ldi	r18, 0x00	; 0
    4540:	30 e0       	ldi	r19, 0x00	; 0
    4542:	40 e0       	ldi	r20, 0x00	; 0
    4544:	51 e4       	ldi	r21, 0x41	; 65
    4546:	c7 01       	movw	r24, r14
    4548:	b6 01       	movw	r22, r12
    454a:	0e 94 35 2b 	call	0x566a	; 0x566a <__gesf2>
    454e:	18 16       	cp	r1, r24
    4550:	9c f4       	brge	.+38     	; 0x4578 <main+0x22a>
    4552:	20 e0       	ldi	r18, 0x00	; 0
    4554:	30 e0       	ldi	r19, 0x00	; 0
    4556:	40 ea       	ldi	r20, 0xA0	; 160
    4558:	51 e4       	ldi	r21, 0x41	; 65
    455a:	c7 01       	movw	r24, r14
    455c:	b6 01       	movw	r22, r12
    455e:	0e 94 e6 29 	call	0x53cc	; 0x53cc <__cmpsf2>
    4562:	88 23       	and	r24, r24
    4564:	4c f4       	brge	.+18     	; 0x4578 <main+0x22a>
				current_value=(double)0.0;
    4566:	10 92 98 01 	sts	0x0198, r1
    456a:	10 92 99 01 	sts	0x0199, r1
    456e:	10 92 9a 01 	sts	0x019A, r1
    4572:	10 92 9b 01 	sts	0x019B, r1
    4576:	13 c0       	rjmp	.+38     	; 0x459e <main+0x250>
				//over going value causes max duty cycle to be recalculated
				//MAXIMUM_DUTY=2048*0.9*((9-current_value)/current_value); 	
			}
			if (current_value >= 20){
    4578:	20 e0       	ldi	r18, 0x00	; 0
    457a:	30 e0       	ldi	r19, 0x00	; 0
    457c:	40 ea       	ldi	r20, 0xA0	; 160
    457e:	51 e4       	ldi	r21, 0x41	; 65
    4580:	60 91 98 01 	lds	r22, 0x0198
    4584:	70 91 99 01 	lds	r23, 0x0199
    4588:	80 91 9a 01 	lds	r24, 0x019A
    458c:	90 91 9b 01 	lds	r25, 0x019B
    4590:	0e 94 35 2b 	call	0x566a	; 0x566a <__gesf2>
    4594:	88 23       	and	r24, r24
    4596:	1c f0       	brlt	.+6      	; 0x459e <main+0x250>
				//short circuit
				keep_heater_off=1;	
    4598:	81 e0       	ldi	r24, 0x01	; 1
    459a:	80 93 b9 01 	sts	0x01B9, r24
			}
			ADMUX=0b01000010; //check input voltage ADC2
    459e:	82 e4       	ldi	r24, 0x42	; 66
    45a0:	ac e7       	ldi	r26, 0x7C	; 124
    45a2:	b0 e0       	ldi	r27, 0x00	; 0
    45a4:	8c 93       	st	X, r24
			ADCSRA |= (1 << ADSC);	 // start an ADC conversion
    45a6:	f8 01       	movw	r30, r16
    45a8:	80 81       	ld	r24, Z
    45aa:	80 64       	ori	r24, 0x40	; 64
    45ac:	80 83       	st	Z, r24
			while(ADCSRA & _BV(ADSC));    // wait until conversion is complete
    45ae:	d8 01       	movw	r26, r16
    45b0:	8c 91       	ld	r24, X
    45b2:	86 fd       	sbrc	r24, 6
    45b4:	fc cf       	rjmp	.-8      	; 0x45ae <main+0x260>
			voltage_adc1=ADC;
    45b6:	e8 e7       	ldi	r30, 0x78	; 120
    45b8:	f0 e0       	ldi	r31, 0x00	; 0
    45ba:	80 81       	ld	r24, Z
    45bc:	91 81       	ldd	r25, Z+1	; 0x01
    45be:	90 93 a1 01 	sts	0x01A1, r25
    45c2:	80 93 a0 01 	sts	0x01A0, r24
			ADMUX=0b01000010; //check input voltage ADC2
    45c6:	82 e4       	ldi	r24, 0x42	; 66
    45c8:	ac e7       	ldi	r26, 0x7C	; 124
    45ca:	b0 e0       	ldi	r27, 0x00	; 0
    45cc:	8c 93       	st	X, r24
			ADCSRA |= (1 << ADSC);	 // start an ADC conversion
    45ce:	f8 01       	movw	r30, r16
    45d0:	80 81       	ld	r24, Z
    45d2:	80 64       	ori	r24, 0x40	; 64
    45d4:	80 83       	st	Z, r24
			while(ADCSRA & _BV(ADSC));    // wait until conversion is complete
    45d6:	d8 01       	movw	r26, r16
    45d8:	8c 91       	ld	r24, X
    45da:	86 fd       	sbrc	r24, 6
    45dc:	fc cf       	rjmp	.-8      	; 0x45d6 <main+0x288>
			voltage_adc=(ADC+voltage_adc1)/2;
    45de:	e8 e7       	ldi	r30, 0x78	; 120
    45e0:	f0 e0       	ldi	r31, 0x00	; 0
    45e2:	60 81       	ld	r22, Z
    45e4:	71 81       	ldd	r23, Z+1	; 0x01
    45e6:	80 91 a0 01 	lds	r24, 0x01A0
    45ea:	90 91 a1 01 	lds	r25, 0x01A1
    45ee:	68 0f       	add	r22, r24
    45f0:	79 1f       	adc	r23, r25
    45f2:	76 95       	lsr	r23
    45f4:	67 95       	ror	r22
    45f6:	70 93 a3 01 	sts	0x01A3, r23
    45fa:	60 93 a2 01 	sts	0x01A2, r22
			
			// voltage division from input with 6.2k/(6.2k+51k)
			// x*0.108391608391608*1024/5 =  22.198601398601397
			// 1/22.198601398601397=0.045047883064516
			voltage_value=(double)(voltage_adc*0.045047883064516);
    45fe:	80 e0       	ldi	r24, 0x00	; 0
    4600:	90 e0       	ldi	r25, 0x00	; 0
    4602:	0e 94 83 2a 	call	0x5506	; 0x5506 <__floatunsisf>
    4606:	21 e2       	ldi	r18, 0x21	; 33
    4608:	34 e8       	ldi	r19, 0x84	; 132
    460a:	48 e3       	ldi	r20, 0x38	; 56
    460c:	5d e3       	ldi	r21, 0x3D	; 61
    460e:	0e 94 39 2b 	call	0x5672	; 0x5672 <__mulsf3>
    4612:	6b 01       	movw	r12, r22
    4614:	7c 01       	movw	r14, r24
			if(voltage_value>60){ //goodbye MOSFET
    4616:	20 e0       	ldi	r18, 0x00	; 0
    4618:	30 e0       	ldi	r19, 0x00	; 0
    461a:	40 e7       	ldi	r20, 0x70	; 112
    461c:	52 e4       	ldi	r21, 0x42	; 66
    461e:	0e 94 35 2b 	call	0x566a	; 0x566a <__gesf2>
    4622:	18 16       	cp	r1, r24
    4624:	4c f0       	brlt	.+18     	; 0x4638 <main+0x2ea>
			voltage_adc=(ADC+voltage_adc1)/2;
			
			// voltage division from input with 6.2k/(6.2k+51k)
			// x*0.108391608391608*1024/5 =  22.198601398601397
			// 1/22.198601398601397=0.045047883064516
			voltage_value=(double)(voltage_adc*0.045047883064516);
    4626:	c0 92 94 01 	sts	0x0194, r12
    462a:	d0 92 95 01 	sts	0x0195, r13
    462e:	e0 92 96 01 	sts	0x0196, r14
    4632:	f0 92 97 01 	sts	0x0197, r15
    4636:	08 c0       	rjmp	.+16     	; 0x4648 <main+0x2fa>
			if(voltage_value>60){ //goodbye MOSFET
				voltage_value=(double)0.0;
    4638:	10 92 94 01 	sts	0x0194, r1
    463c:	10 92 95 01 	sts	0x0195, r1
    4640:	10 92 96 01 	sts	0x0196, r1
    4644:	10 92 97 01 	sts	0x0197, r1
			}
			
			power_value=(double)voltage_value*current_value;
    4648:	20 91 98 01 	lds	r18, 0x0198
    464c:	30 91 99 01 	lds	r19, 0x0199
    4650:	40 91 9a 01 	lds	r20, 0x019A
    4654:	50 91 9b 01 	lds	r21, 0x019B
    4658:	60 91 94 01 	lds	r22, 0x0194
    465c:	70 91 95 01 	lds	r23, 0x0195
    4660:	80 91 96 01 	lds	r24, 0x0196
    4664:	90 91 97 01 	lds	r25, 0x0197
    4668:	0e 94 39 2b 	call	0x5672	; 0x5672 <__mulsf3>
    466c:	6b 01       	movw	r12, r22
    466e:	7c 01       	movw	r14, r24
			
			if(power_value>MAX_POWER+50){
    4670:	20 e0       	ldi	r18, 0x00	; 0
    4672:	30 e0       	ldi	r19, 0x00	; 0
    4674:	48 e4       	ldi	r20, 0x48	; 72
    4676:	53 e4       	ldi	r21, 0x43	; 67
    4678:	0e 94 35 2b 	call	0x566a	; 0x566a <__gesf2>
    467c:	18 16       	cp	r1, r24
    467e:	4c f0       	brlt	.+18     	; 0x4692 <main+0x344>
			voltage_value=(double)(voltage_adc*0.045047883064516);
			if(voltage_value>60){ //goodbye MOSFET
				voltage_value=(double)0.0;
			}
			
			power_value=(double)voltage_value*current_value;
    4680:	c0 92 90 01 	sts	0x0190, r12
    4684:	d0 92 91 01 	sts	0x0191, r13
    4688:	e0 92 92 01 	sts	0x0192, r14
    468c:	f0 92 93 01 	sts	0x0193, r15
    4690:	08 c0       	rjmp	.+16     	; 0x46a2 <main+0x354>
			
			if(power_value>MAX_POWER+50){
				power_value=(double)0.0;	
    4692:	10 92 90 01 	sts	0x0190, r1
    4696:	10 92 91 01 	sts	0x0191, r1
    469a:	10 92 92 01 	sts	0x0192, r1
    469e:	10 92 93 01 	sts	0x0193, r1
			}
			if(clicked==1){ //save with click
    46a2:	80 91 b8 01 	lds	r24, 0x01B8
    46a6:	81 30       	cpi	r24, 0x01	; 1
    46a8:	39 f4       	brne	.+14     	; 0x46b8 <main+0x36a>
				clicked=0;
    46aa:	10 92 b8 01 	sts	0x01B8, r1
				save_eeprom();
    46ae:	0e 94 2f 20 	call	0x405e	; 0x405e <_Z11save_eepromv>
				saved_sign=TEMP_SIGN_TIME;
    46b2:	82 e0       	ldi	r24, 0x02	; 2
    46b4:	80 93 b4 01 	sts	0x01B4, r24
			}
			
			if( save_time == 0 && saved==0){
    46b8:	80 91 b5 01 	lds	r24, 0x01B5
    46bc:	81 11       	cpse	r24, r1
    46be:	30 c0       	rjmp	.+96     	; 0x4720 <main+0x3d2>
    46c0:	80 91 50 01 	lds	r24, 0x0150
    46c4:	88 23       	and	r24, r24
    46c6:	09 f4       	brne	.+2      	; 0x46ca <main+0x37c>
    46c8:	49 c2       	rjmp	.+1170   	; 0x4b5c <main+0x80e>
    46ca:	2a c0       	rjmp	.+84     	; 0x4720 <main+0x3d2>
				saved=1;
				int justtobesure4=0;
				while(1){
					justtobesure4++;
					if(eeprom_is_ready()==1) {
    46cc:	f9 99       	sbic	0x1f, 1	; 31
    46ce:	09 c0       	rjmp	.+18     	; 0x46e2 <main+0x394>
						//read values
						saved_temp_temp=eeprom_read_word(&saved_temperature);
    46d0:	80 e0       	ldi	r24, 0x00	; 0
    46d2:	90 e0       	ldi	r25, 0x00	; 0
    46d4:	0e 94 02 36 	call	0x6c04	; 0x6c04 <__eerd_word_m328p>
    46d8:	90 93 9f 01 	sts	0x019F, r25
    46dc:	80 93 9e 01 	sts	0x019E, r24
						break;
    46e0:	03 c0       	rjmp	.+6      	; 0x46e8 <main+0x39a>
    46e2:	01 97       	sbiw	r24, 0x01	; 1
					}
					if(justtobesure4>=100){ //failed to read eeprom
    46e4:	00 97       	sbiw	r24, 0x00	; 0
    46e6:	91 f7       	brne	.-28     	; 0x46cc <main+0x37e>
						break;
					}
				}
				
				if(  TARGET_TEMPERATURE >= saved_temp_temp +5 || TARGET_TEMPERATURE+5 <= saved_temp_temp  ){ 
    46e8:	80 91 9e 01 	lds	r24, 0x019E
    46ec:	90 91 9f 01 	lds	r25, 0x019F
    46f0:	20 91 be 01 	lds	r18, 0x01BE
    46f4:	30 91 bf 01 	lds	r19, 0x01BF
    46f8:	ac 01       	movw	r20, r24
    46fa:	4b 5f       	subi	r20, 0xFB	; 251
    46fc:	5f 4f       	sbci	r21, 0xFF	; 255
    46fe:	24 17       	cp	r18, r20
    4700:	35 07       	cpc	r19, r21
    4702:	48 f4       	brcc	.+18     	; 0x4716 <main+0x3c8>
    4704:	20 91 be 01 	lds	r18, 0x01BE
    4708:	30 91 bf 01 	lds	r19, 0x01BF
    470c:	2b 5f       	subi	r18, 0xFB	; 251
    470e:	3f 4f       	sbci	r19, 0xFF	; 255
    4710:	82 17       	cp	r24, r18
    4712:	93 07       	cpc	r25, r19
    4714:	28 f0       	brcs	.+10     	; 0x4720 <main+0x3d2>
					save_eeprom();
    4716:	0e 94 2f 20 	call	0x405e	; 0x405e <_Z11save_eepromv>
					saved_sign=TEMP_SIGN_TIME;
    471a:	82 e0       	ldi	r24, 0x02	; 2
    471c:	80 93 b4 01 	sts	0x01B4, r24
					
				}
				
			}
			if( save_time > 0){
    4720:	80 91 b5 01 	lds	r24, 0x01B5
    4724:	88 23       	and	r24, r24
    4726:	39 f0       	breq	.+14     	; 0x4736 <main+0x3e8>
				save_time--;
    4728:	80 91 b5 01 	lds	r24, 0x01B5
    472c:	81 50       	subi	r24, 0x01	; 1
    472e:	80 93 b5 01 	sts	0x01B5, r24
				saved=0;
    4732:	10 92 50 01 	sts	0x0150, r1
			}
			
			if( show_time>0){
    4736:	80 91 b6 01 	lds	r24, 0x01B6
    473a:	88 23       	and	r24, r24
    473c:	29 f0       	breq	.+10     	; 0x4748 <main+0x3fa>
				
				show_time--;
    473e:	80 91 b6 01 	lds	r24, 0x01B6
    4742:	81 50       	subi	r24, 0x01	; 1
    4744:	80 93 b6 01 	sts	0x01B6, r24
			}
			if(saved_sign >0){
    4748:	80 91 b4 01 	lds	r24, 0x01B4
    474c:	88 23       	and	r24, r24
    474e:	29 f0       	breq	.+10     	; 0x475a <main+0x40c>
				saved_sign--;
    4750:	80 91 b4 01 	lds	r24, 0x01B4
    4754:	81 50       	subi	r24, 0x01	; 1
    4756:	80 93 b4 01 	sts	0x01B4, r24
				
			}

			//intToStr(current_adc, current1, 3);						
			ftoa(current_value, current1, 3);
    475a:	60 91 98 01 	lds	r22, 0x0198
    475e:	70 91 99 01 	lds	r23, 0x0199
    4762:	80 91 9a 01 	lds	r24, 0x019A
    4766:	90 91 9b 01 	lds	r25, 0x019B
    476a:	23 e0       	ldi	r18, 0x03	; 3
    476c:	30 e0       	ldi	r19, 0x00	; 0
    476e:	ae 01       	movw	r20, r28
    4770:	45 5d       	subi	r20, 0xD5	; 213
    4772:	5f 4f       	sbci	r21, 0xFF	; 255
    4774:	0e 94 ea 20 	call	0x41d4	; 0x41d4 <_Z4ftoafPci>
			ftoa(voltage_value, voltage1, 1);
    4778:	60 91 94 01 	lds	r22, 0x0194
    477c:	70 91 95 01 	lds	r23, 0x0195
    4780:	80 91 96 01 	lds	r24, 0x0196
    4784:	90 91 97 01 	lds	r25, 0x0197
    4788:	21 e0       	ldi	r18, 0x01	; 1
    478a:	30 e0       	ldi	r19, 0x00	; 0
    478c:	ae 01       	movw	r20, r28
    478e:	4b 5d       	subi	r20, 0xDB	; 219
    4790:	5f 4f       	sbci	r21, 0xFF	; 255
    4792:	0e 94 ea 20 	call	0x41d4	; 0x41d4 <_Z4ftoafPci>
					
			intToStr(temperature_adc_mean, wtf, 0);	
    4796:	80 91 bc 01 	lds	r24, 0x01BC
    479a:	90 91 bd 01 	lds	r25, 0x01BD
    479e:	40 e0       	ldi	r20, 0x00	; 0
    47a0:	50 e0       	ldi	r21, 0x00	; 0
    47a2:	be 01       	movw	r22, r28
    47a4:	63 5f       	subi	r22, 0xF3	; 243
    47a6:	7f 4f       	sbci	r23, 0xFF	; 255
    47a8:	0e 94 af 20 	call	0x415e	; 0x415e <_Z8intToStriPci>
			intToStr(iji, wtf2, 0);
    47ac:	80 91 ac 01 	lds	r24, 0x01AC
    47b0:	90 91 ad 01 	lds	r25, 0x01AD
    47b4:	40 e0       	ldi	r20, 0x00	; 0
    47b6:	50 e0       	ldi	r21, 0x00	; 0
    47b8:	be 01       	movw	r22, r28
    47ba:	69 5f       	subi	r22, 0xF9	; 249
    47bc:	7f 4f       	sbci	r23, 0xFF	; 255
    47be:	0e 94 af 20 	call	0x415e	; 0x415e <_Z8intToStriPci>
			ftoa(m, wtf3, 3);
    47c2:	60 91 a8 01 	lds	r22, 0x01A8
    47c6:	70 91 a9 01 	lds	r23, 0x01A9
    47ca:	80 91 aa 01 	lds	r24, 0x01AA
    47ce:	90 91 ab 01 	lds	r25, 0x01AB
    47d2:	23 e0       	ldi	r18, 0x03	; 3
    47d4:	30 e0       	ldi	r19, 0x00	; 0
    47d6:	ae 01       	movw	r20, r28
    47d8:	4f 5f       	subi	r20, 0xFF	; 255
    47da:	5f 4f       	sbci	r21, 0xFF	; 255
    47dc:	0e 94 ea 20 	call	0x41d4	; 0x41d4 <_Z4ftoafPci>
					
		}
		
		
		memset(&temp2[0], 0, sizeof( temp2));
    47e0:	0f 2e       	mov	r0, r31
    47e2:	f6 e0       	ldi	r31, 0x06	; 6
    47e4:	ff 2e       	mov	r15, r31
    47e6:	f0 2d       	mov	r31, r0
    47e8:	d4 01       	movw	r26, r8
    47ea:	ef 2d       	mov	r30, r15
    47ec:	1d 92       	st	X+, r1
    47ee:	ea 95       	dec	r30
    47f0:	e9 f7       	brne	.-6      	; 0x47ec <main+0x49e>
		TARGET_TEMPERATUREgah=TARGET_TEMPERATURE;
    47f2:	80 91 be 01 	lds	r24, 0x01BE
    47f6:	90 91 bf 01 	lds	r25, 0x01BF
    47fa:	90 93 87 01 	sts	0x0187, r25
    47fe:	80 93 86 01 	sts	0x0186, r24
		intToStr(TARGET_TEMPERATUREgah, temp2, 0);
    4802:	40 e0       	ldi	r20, 0x00	; 0
    4804:	50 e0       	ldi	r21, 0x00	; 0
    4806:	b4 01       	movw	r22, r8
    4808:	0e 94 af 20 	call	0x415e	; 0x415e <_Z8intToStriPci>
		
		memset(&temp1[0], 0, sizeof( temp1));
    480c:	d1 01       	movw	r26, r2
    480e:	1d 92       	st	X+, r1
    4810:	fa 94       	dec	r15
    4812:	e9 f7       	brne	.-6      	; 0x480e <main+0x4c0>
		temperature_valuegah=round(temperature_value);
    4814:	60 91 ae 01 	lds	r22, 0x01AE
    4818:	70 91 af 01 	lds	r23, 0x01AF
    481c:	80 91 b0 01 	lds	r24, 0x01B0
    4820:	90 91 b1 01 	lds	r25, 0x01B1
    4824:	0e 94 e8 2b 	call	0x57d0	; 0x57d0 <round>
    4828:	2b 01       	movw	r4, r22
    482a:	3c 01       	movw	r6, r24
		
		modulo=(uint16_t)temperature_valuegah % 5;
    482c:	0e 94 57 2a 	call	0x54ae	; 0x54ae <__fixunssfsi>
    4830:	6b 01       	movw	r12, r22
    4832:	7c 01       	movw	r14, r24
    4834:	9b 01       	movw	r18, r22
    4836:	ad ec       	ldi	r26, 0xCD	; 205
    4838:	bc ec       	ldi	r27, 0xCC	; 204
    483a:	0e 94 c4 35 	call	0x6b88	; 0x6b88 <__umulhisi3>
    483e:	96 95       	lsr	r25
    4840:	87 95       	ror	r24
    4842:	96 95       	lsr	r25
    4844:	87 95       	ror	r24
    4846:	9c 01       	movw	r18, r24
    4848:	22 0f       	add	r18, r18
    484a:	33 1f       	adc	r19, r19
    484c:	22 0f       	add	r18, r18
    484e:	33 1f       	adc	r19, r19
    4850:	82 0f       	add	r24, r18
    4852:	93 1f       	adc	r25, r19
    4854:	c8 1a       	sub	r12, r24
    4856:	d9 0a       	sbc	r13, r25
    4858:	b6 01       	movw	r22, r12
    485a:	80 e0       	ldi	r24, 0x00	; 0
    485c:	90 e0       	ldi	r25, 0x00	; 0
    485e:	0e 94 83 2a 	call	0x5506	; 0x5506 <__floatunsisf>
    4862:	6b 01       	movw	r12, r22
    4864:	7c 01       	movw	r14, r24
		if(modulo >=3){
    4866:	20 e0       	ldi	r18, 0x00	; 0
    4868:	30 e0       	ldi	r19, 0x00	; 0
    486a:	40 e4       	ldi	r20, 0x40	; 64
    486c:	50 e4       	ldi	r21, 0x40	; 64
    486e:	0e 94 35 2b 	call	0x566a	; 0x566a <__gesf2>
    4872:	88 23       	and	r24, r24
    4874:	bc f0       	brlt	.+46     	; 0x48a4 <main+0x556>
			temperature_valuegah+=5-modulo;
    4876:	a7 01       	movw	r20, r14
    4878:	96 01       	movw	r18, r12
    487a:	60 e0       	ldi	r22, 0x00	; 0
    487c:	70 e0       	ldi	r23, 0x00	; 0
    487e:	80 ea       	ldi	r24, 0xA0	; 160
    4880:	90 e4       	ldi	r25, 0x40	; 64
    4882:	0e 94 81 29 	call	0x5302	; 0x5302 <__subsf3>
    4886:	9b 01       	movw	r18, r22
    4888:	ac 01       	movw	r20, r24
    488a:	c3 01       	movw	r24, r6
    488c:	b2 01       	movw	r22, r4
    488e:	0e 94 82 29 	call	0x5304	; 0x5304 <__addsf3>
    4892:	60 93 88 01 	sts	0x0188, r22
    4896:	70 93 89 01 	sts	0x0189, r23
    489a:	80 93 8a 01 	sts	0x018A, r24
    489e:	90 93 8b 01 	sts	0x018B, r25
    48a2:	21 c0       	rjmp	.+66     	; 0x48e6 <main+0x598>
		}
		else if(modulo <3){
    48a4:	20 e0       	ldi	r18, 0x00	; 0
    48a6:	30 e0       	ldi	r19, 0x00	; 0
    48a8:	40 e4       	ldi	r20, 0x40	; 64
    48aa:	50 e4       	ldi	r21, 0x40	; 64
    48ac:	c7 01       	movw	r24, r14
    48ae:	b6 01       	movw	r22, r12
    48b0:	0e 94 e6 29 	call	0x53cc	; 0x53cc <__cmpsf2>
    48b4:	88 23       	and	r24, r24
    48b6:	4c f0       	brlt	.+18     	; 0x48ca <main+0x57c>
		memset(&temp2[0], 0, sizeof( temp2));
		TARGET_TEMPERATUREgah=TARGET_TEMPERATURE;
		intToStr(TARGET_TEMPERATUREgah, temp2, 0);
		
		memset(&temp1[0], 0, sizeof( temp1));
		temperature_valuegah=round(temperature_value);
    48b8:	40 92 88 01 	sts	0x0188, r4
    48bc:	50 92 89 01 	sts	0x0189, r5
    48c0:	60 92 8a 01 	sts	0x018A, r6
    48c4:	70 92 8b 01 	sts	0x018B, r7
    48c8:	0e c0       	rjmp	.+28     	; 0x48e6 <main+0x598>
		modulo=(uint16_t)temperature_valuegah % 5;
		if(modulo >=3){
			temperature_valuegah+=5-modulo;
		}
		else if(modulo <3){
			temperature_valuegah-=modulo;
    48ca:	a7 01       	movw	r20, r14
    48cc:	96 01       	movw	r18, r12
    48ce:	c3 01       	movw	r24, r6
    48d0:	b2 01       	movw	r22, r4
    48d2:	0e 94 81 29 	call	0x5302	; 0x5302 <__subsf3>
    48d6:	60 93 88 01 	sts	0x0188, r22
    48da:	70 93 89 01 	sts	0x0189, r23
    48de:	80 93 8a 01 	sts	0x018A, r24
    48e2:	90 93 8b 01 	sts	0x018B, r25
		}

		ftoa(temperature_valuegah, temp1, 0);
    48e6:	60 91 88 01 	lds	r22, 0x0188
    48ea:	70 91 89 01 	lds	r23, 0x0189
    48ee:	80 91 8a 01 	lds	r24, 0x018A
    48f2:	90 91 8b 01 	lds	r25, 0x018B
    48f6:	20 e0       	ldi	r18, 0x00	; 0
    48f8:	30 e0       	ldi	r19, 0x00	; 0
    48fa:	a1 01       	movw	r20, r2
    48fc:	0e 94 ea 20 	call	0x41d4	; 0x41d4 <_Z4ftoafPci>
		
		memset(& power1[0], 0, sizeof(power1));
    4900:	86 e0       	ldi	r24, 0x06	; 6
    4902:	f5 01       	movw	r30, r10
    4904:	11 92       	st	Z+, r1
    4906:	8a 95       	dec	r24
    4908:	e9 f7       	brne	.-6      	; 0x4904 <main+0x5b6>
		power_valuegah=power_value;
    490a:	60 91 90 01 	lds	r22, 0x0190
    490e:	70 91 91 01 	lds	r23, 0x0191
    4912:	80 91 92 01 	lds	r24, 0x0192
    4916:	90 91 93 01 	lds	r25, 0x0193
    491a:	60 93 8c 01 	sts	0x018C, r22
    491e:	70 93 8d 01 	sts	0x018D, r23
    4922:	80 93 8e 01 	sts	0x018E, r24
    4926:	90 93 8f 01 	sts	0x018F, r25
		ftoa(power_valuegah, power1, 0);
    492a:	20 e0       	ldi	r18, 0x00	; 0
    492c:	30 e0       	ldi	r19, 0x00	; 0
    492e:	a5 01       	movw	r20, r10
    4930:	0e 94 ea 20 	call	0x41d4	; 0x41d4 <_Z4ftoafPci>
			
		

		u8g_FirstPage(&u8g);
    4934:	84 e8       	ldi	r24, 0x84	; 132
    4936:	92 e0       	ldi	r25, 0x02	; 2
    4938:	0e 94 59 31 	call	0x62b2	; 0x62b2 <u8g_FirstPage>
		do{	//x,y
			//LCD_clear();
			//u8g_Delay(50);
			//disconnected_sign_moving();
						
			if(disconnected==1){
    493c:	80 91 ba 01 	lds	r24, 0x01BA
    4940:	81 30       	cpi	r24, 0x01	; 1
    4942:	b9 f4       	brne	.+46     	; 0x4972 <main+0x624>
			//please check connection
				u8g_SetFont(&u8g, u8g_font_fur25);
    4944:	63 e6       	ldi	r22, 0x63	; 99
    4946:	76 e0       	ldi	r23, 0x06	; 6
    4948:	84 e8       	ldi	r24, 0x84	; 132
    494a:	92 e0       	ldi	r25, 0x02	; 2
    494c:	0e 94 e0 2f 	call	0x5fc0	; 0x5fc0 <u8g_SetFont>
				//LCD_clear();
				//u8g_Delay(50);
				//disconnected_sign_moving();
				u8g_DrawStr(&u8g, 19, 41,"check");
    4950:	21 e6       	ldi	r18, 0x61	; 97
    4952:	31 e0       	ldi	r19, 0x01	; 1
    4954:	49 e2       	ldi	r20, 0x29	; 41
    4956:	63 e1       	ldi	r22, 0x13	; 19
    4958:	84 e8       	ldi	r24, 0x84	; 132
    495a:	92 e0       	ldi	r25, 0x02	; 2
    495c:	0e 94 ae 2f 	call	0x5f5c	; 0x5f5c <u8g_DrawStr>
				u8g_DrawStr(&u8g, 0, 61,"connect");
    4960:	27 e6       	ldi	r18, 0x67	; 103
    4962:	31 e0       	ldi	r19, 0x01	; 1
    4964:	4d e3       	ldi	r20, 0x3D	; 61
    4966:	60 e0       	ldi	r22, 0x00	; 0
    4968:	84 e8       	ldi	r24, 0x84	; 132
    496a:	92 e0       	ldi	r25, 0x02	; 2
    496c:	0e 94 ae 2f 	call	0x5f5c	; 0x5f5c <u8g_DrawStr>
    4970:	e7 c0       	rjmp	.+462    	; 0x4b40 <main+0x7f2>
			}
			else if(disconnected==0){
    4972:	80 91 ba 01 	lds	r24, 0x01BA
    4976:	81 11       	cpse	r24, r1
    4978:	e3 c0       	rjmp	.+454    	; 0x4b40 <main+0x7f2>
				
				if(saved_sign >0){ 
    497a:	80 91 b4 01 	lds	r24, 0x01B4
    497e:	81 11       	cpse	r24, r1
					save_sign();
    4980:	0e 94 40 20 	call	0x4080	; 0x4080 <_Z9save_signv>
				}
				
				u8g_SetFont(&u8g, u8g_font_7x13);
    4984:	60 e1       	ldi	r22, 0x10	; 16
    4986:	75 e3       	ldi	r23, 0x35	; 53
    4988:	84 e8       	ldi	r24, 0x84	; 132
    498a:	92 e0       	ldi	r25, 0x02	; 2
    498c:	0e 94 e0 2f 	call	0x5fc0	; 0x5fc0 <u8g_SetFont>
				//	u8g_DrawStr(&u8g, 50, 13,wtf2);
				//u8g_DrawStr(&u8g, 8, 13,voltage1);
				//u8g_DrawStr(&u8g, 18, 13,"target:");
				//u8g_DrawStr(&u8g, 68, 13,temp2);
				
				u8g_SetFont(&u8g, u8g_font_fur30n); //54x30 pixels
    4990:	62 eb       	ldi	r22, 0xB2	; 178
    4992:	71 e0       	ldi	r23, 0x01	; 1
    4994:	84 e8       	ldi	r24, 0x84	; 132
    4996:	92 e0       	ldi	r25, 0x02	; 2
    4998:	0e 94 e0 2f 	call	0x5fc0	; 0x5fc0 <u8g_SetFont>
				
				if( show_time>0){
    499c:	80 91 b6 01 	lds	r24, 0x01B6
    49a0:	88 23       	and	r24, r24
    49a2:	51 f1       	breq	.+84     	; 0x49f8 <main+0x6aa>
					show_temp=0;					
    49a4:	10 92 b7 01 	sts	0x01B7, r1
					//strncpy(temp2,temp1,6);			
					if(TARGET_TEMPERATUREgah>= 100){
    49a8:	80 91 86 01 	lds	r24, 0x0186
    49ac:	90 91 87 01 	lds	r25, 0x0187
    49b0:	84 36       	cpi	r24, 0x64	; 100
    49b2:	91 05       	cpc	r25, r1
    49b4:	40 f0       	brcs	.+16     	; 0x49c6 <main+0x678>
						
						u8g_DrawStr(&u8g, 18, 49,  temp2);				
    49b6:	94 01       	movw	r18, r8
    49b8:	41 e3       	ldi	r20, 0x31	; 49
    49ba:	62 e1       	ldi	r22, 0x12	; 18
    49bc:	84 e8       	ldi	r24, 0x84	; 132
    49be:	92 e0       	ldi	r25, 0x02	; 2
    49c0:	0e 94 ae 2f 	call	0x5f5c	; 0x5f5c <u8g_DrawStr>
    49c4:	58 c0       	rjmp	.+176    	; 0x4a76 <main+0x728>
						//delay_ms(30);
					}
					else if(TARGET_TEMPERATUREgah < 100 && TARGET_TEMPERATUREgah >= 10){
    49c6:	9c 01       	movw	r18, r24
    49c8:	2a 50       	subi	r18, 0x0A	; 10
    49ca:	31 09       	sbc	r19, r1
    49cc:	2a 35       	cpi	r18, 0x5A	; 90
    49ce:	31 05       	cpc	r19, r1
    49d0:	40 f4       	brcc	.+16     	; 0x49e2 <main+0x694>
					
						u8g_DrawStr(&u8g, 42, 49,  temp2);
    49d2:	94 01       	movw	r18, r8
    49d4:	41 e3       	ldi	r20, 0x31	; 49
    49d6:	6a e2       	ldi	r22, 0x2A	; 42
    49d8:	84 e8       	ldi	r24, 0x84	; 132
    49da:	92 e0       	ldi	r25, 0x02	; 2
    49dc:	0e 94 ae 2f 	call	0x5f5c	; 0x5f5c <u8g_DrawStr>
    49e0:	4a c0       	rjmp	.+148    	; 0x4a76 <main+0x728>
						//delay_ms(30);
					}
					else if(TARGET_TEMPERATUREgah < 10){
    49e2:	0a 97       	sbiw	r24, 0x0a	; 10
    49e4:	08 f0       	brcs	.+2      	; 0x49e8 <main+0x69a>
    49e6:	47 c0       	rjmp	.+142    	; 0x4a76 <main+0x728>
						u8g_DrawStr(&u8g, 66, 49,  temp2);
    49e8:	94 01       	movw	r18, r8
    49ea:	41 e3       	ldi	r20, 0x31	; 49
    49ec:	62 e4       	ldi	r22, 0x42	; 66
    49ee:	84 e8       	ldi	r24, 0x84	; 132
    49f0:	92 e0       	ldi	r25, 0x02	; 2
    49f2:	0e 94 ae 2f 	call	0x5f5c	; 0x5f5c <u8g_DrawStr>
    49f6:	3f c0       	rjmp	.+126    	; 0x4a76 <main+0x728>
					}	
				}		
							
				else if(show_temp==0 && show_time==0){
    49f8:	80 91 b7 01 	lds	r24, 0x01B7
    49fc:	81 11       	cpse	r24, r1
    49fe:	3b c0       	rjmp	.+118    	; 0x4a76 <main+0x728>
    4a00:	80 91 b6 01 	lds	r24, 0x01B6
    4a04:	88 23       	and	r24, r24
    4a06:	09 f4       	brne	.+2      	; 0x4a0a <main+0x6bc>
    4a08:	af c0       	rjmp	.+350    	; 0x4b68 <main+0x81a>
    4a0a:	35 c0       	rjmp	.+106    	; 0x4a76 <main+0x728>
					
					if(temperature_valuegah >= 100 ){//&& temperature_value < 1000){	
						u8g_DrawStr(&u8g, 18, 49,  temp1);
    4a0c:	91 01       	movw	r18, r2
    4a0e:	41 e3       	ldi	r20, 0x31	; 49
    4a10:	62 e1       	ldi	r22, 0x12	; 18
    4a12:	84 e8       	ldi	r24, 0x84	; 132
    4a14:	92 e0       	ldi	r25, 0x02	; 2
    4a16:	0e 94 ae 2f 	call	0x5f5c	; 0x5f5c <u8g_DrawStr>
    4a1a:	2d c0       	rjmp	.+90     	; 0x4a76 <main+0x728>
						//delay_ms(30);	
					}
					else if(temperature_valuegah < 100 && temperature_valuegah >= 10){
    4a1c:	20 e0       	ldi	r18, 0x00	; 0
    4a1e:	30 e0       	ldi	r19, 0x00	; 0
    4a20:	48 ec       	ldi	r20, 0xC8	; 200
    4a22:	52 e4       	ldi	r21, 0x42	; 66
    4a24:	c7 01       	movw	r24, r14
    4a26:	b6 01       	movw	r22, r12
    4a28:	0e 94 e6 29 	call	0x53cc	; 0x53cc <__cmpsf2>
    4a2c:	88 23       	and	r24, r24
    4a2e:	94 f4       	brge	.+36     	; 0x4a54 <main+0x706>
    4a30:	20 e0       	ldi	r18, 0x00	; 0
    4a32:	30 e0       	ldi	r19, 0x00	; 0
    4a34:	40 e2       	ldi	r20, 0x20	; 32
    4a36:	51 e4       	ldi	r21, 0x41	; 65
    4a38:	c7 01       	movw	r24, r14
    4a3a:	b6 01       	movw	r22, r12
    4a3c:	0e 94 35 2b 	call	0x566a	; 0x566a <__gesf2>
    4a40:	88 23       	and	r24, r24
    4a42:	44 f0       	brlt	.+16     	; 0x4a54 <main+0x706>
						//u8g_SetDefaultBackgroundColor(&u8g);
						//u8g_DrawBox(&u8g,18,19,25,30); //clears first digit
						//u8g_SetDefaultForegroundColor(&u8g);
						//cli(); //disable interrupts //was at beginning of system setup, start PWM can be glitchy if not next to each other
						u8g_DrawStr(&u8g, 42, 49,  temp1);
    4a44:	91 01       	movw	r18, r2
    4a46:	41 e3       	ldi	r20, 0x31	; 49
    4a48:	6a e2       	ldi	r22, 0x2A	; 42
    4a4a:	84 e8       	ldi	r24, 0x84	; 132
    4a4c:	92 e0       	ldi	r25, 0x02	; 2
    4a4e:	0e 94 ae 2f 	call	0x5f5c	; 0x5f5c <u8g_DrawStr>
    4a52:	11 c0       	rjmp	.+34     	; 0x4a76 <main+0x728>
						//delay_ms(30);					
						//sei(); //enable interrupts
					}
					else if(temperature_valuegah < 10){
    4a54:	20 e0       	ldi	r18, 0x00	; 0
    4a56:	30 e0       	ldi	r19, 0x00	; 0
    4a58:	40 e2       	ldi	r20, 0x20	; 32
    4a5a:	51 e4       	ldi	r21, 0x41	; 65
    4a5c:	c7 01       	movw	r24, r14
    4a5e:	b6 01       	movw	r22, r12
    4a60:	0e 94 e6 29 	call	0x53cc	; 0x53cc <__cmpsf2>
    4a64:	88 23       	and	r24, r24
    4a66:	3c f4       	brge	.+14     	; 0x4a76 <main+0x728>
						u8g_DrawStr(&u8g, 66, 49,  temp1);
    4a68:	91 01       	movw	r18, r2
    4a6a:	41 e3       	ldi	r20, 0x31	; 49
    4a6c:	62 e4       	ldi	r22, 0x42	; 66
    4a6e:	84 e8       	ldi	r24, 0x84	; 132
    4a70:	92 e0       	ldi	r25, 0x02	; 2
    4a72:	0e 94 ae 2f 	call	0x5f5c	; 0x5f5c <u8g_DrawStr>
				}
				//u8g_SetFont(&u8g, u8g_font_7x13);
				//u8g_DrawStr(&u8g, 60, 13,spi_testing);	
				
					
				u8g_SetFont(&u8g, u8g_font_fur25);
    4a76:	63 e6       	ldi	r22, 0x63	; 99
    4a78:	76 e0       	ldi	r23, 0x06	; 6
    4a7a:	84 e8       	ldi	r24, 0x84	; 132
    4a7c:	92 e0       	ldi	r25, 0x02	; 2
    4a7e:	0e 94 e0 2f 	call	0x5fc0	; 0x5fc0 <u8g_SetFont>
				u8g_DrawStr(&u8g, 90, 48,  "C");
    4a82:	2f e6       	ldi	r18, 0x6F	; 111
    4a84:	31 e0       	ldi	r19, 0x01	; 1
    4a86:	40 e3       	ldi	r20, 0x30	; 48
    4a88:	6a e5       	ldi	r22, 0x5A	; 90
    4a8a:	84 e8       	ldi	r24, 0x84	; 132
    4a8c:	92 e0       	ldi	r25, 0x02	; 2
    4a8e:	0e 94 ae 2f 	call	0x5f5c	; 0x5f5c <u8g_DrawStr>
			
				u8g_SetFont(&u8g, u8g_font_7x13);	
    4a92:	60 e1       	ldi	r22, 0x10	; 16
    4a94:	75 e3       	ldi	r23, 0x35	; 53
    4a96:	84 e8       	ldi	r24, 0x84	; 132
    4a98:	92 e0       	ldi	r25, 0x02	; 2
    4a9a:	0e 94 e0 2f 	call	0x5fc0	; 0x5fc0 <u8g_SetFont>
				power_scale();
    4a9e:	0e 94 04 1f 	call	0x3e08	; 0x3e08 <_Z11power_scalev>
				if(power_valuegah < 10){
    4aa2:	c0 90 8c 01 	lds	r12, 0x018C
    4aa6:	d0 90 8d 01 	lds	r13, 0x018D
    4aaa:	e0 90 8e 01 	lds	r14, 0x018E
    4aae:	f0 90 8f 01 	lds	r15, 0x018F
    4ab2:	20 e0       	ldi	r18, 0x00	; 0
    4ab4:	30 e0       	ldi	r19, 0x00	; 0
    4ab6:	40 e2       	ldi	r20, 0x20	; 32
    4ab8:	51 e4       	ldi	r21, 0x41	; 65
    4aba:	c7 01       	movw	r24, r14
    4abc:	b6 01       	movw	r22, r12
    4abe:	0e 94 e6 29 	call	0x53cc	; 0x53cc <__cmpsf2>
    4ac2:	88 23       	and	r24, r24
    4ac4:	44 f4       	brge	.+16     	; 0x4ad6 <main+0x788>
					u8g_DrawStr(&u8g, 113, 63, power1);
    4ac6:	95 01       	movw	r18, r10
    4ac8:	4f e3       	ldi	r20, 0x3F	; 63
    4aca:	61 e7       	ldi	r22, 0x71	; 113
    4acc:	84 e8       	ldi	r24, 0x84	; 132
    4ace:	92 e0       	ldi	r25, 0x02	; 2
    4ad0:	0e 94 ae 2f 	call	0x5f5c	; 0x5f5c <u8g_DrawStr>
    4ad4:	2d c0       	rjmp	.+90     	; 0x4b30 <main+0x7e2>
				}
				else if(power_valuegah < 100 && power_valuegah >= 10){
    4ad6:	20 e0       	ldi	r18, 0x00	; 0
    4ad8:	30 e0       	ldi	r19, 0x00	; 0
    4ada:	48 ec       	ldi	r20, 0xC8	; 200
    4adc:	52 e4       	ldi	r21, 0x42	; 66
    4ade:	c7 01       	movw	r24, r14
    4ae0:	b6 01       	movw	r22, r12
    4ae2:	0e 94 e6 29 	call	0x53cc	; 0x53cc <__cmpsf2>
    4ae6:	88 23       	and	r24, r24
    4ae8:	94 f4       	brge	.+36     	; 0x4b0e <main+0x7c0>
    4aea:	20 e0       	ldi	r18, 0x00	; 0
    4aec:	30 e0       	ldi	r19, 0x00	; 0
    4aee:	40 e2       	ldi	r20, 0x20	; 32
    4af0:	51 e4       	ldi	r21, 0x41	; 65
    4af2:	c7 01       	movw	r24, r14
    4af4:	b6 01       	movw	r22, r12
    4af6:	0e 94 35 2b 	call	0x566a	; 0x566a <__gesf2>
    4afa:	88 23       	and	r24, r24
    4afc:	44 f0       	brlt	.+16     	; 0x4b0e <main+0x7c0>
					//u8g_SetDefaultBackgroundColor(&u8g);
					//u8g_DrawBox(&u8g,99,50,7,13); //clears first digit
					//u8g_SetDefaultForegroundColor(&u8g);
					u8g_DrawStr(&u8g, 106, 63, power1);
    4afe:	95 01       	movw	r18, r10
    4b00:	4f e3       	ldi	r20, 0x3F	; 63
    4b02:	6a e6       	ldi	r22, 0x6A	; 106
    4b04:	84 e8       	ldi	r24, 0x84	; 132
    4b06:	92 e0       	ldi	r25, 0x02	; 2
    4b08:	0e 94 ae 2f 	call	0x5f5c	; 0x5f5c <u8g_DrawStr>
    4b0c:	11 c0       	rjmp	.+34     	; 0x4b30 <main+0x7e2>
					
				}
				else if( power_valuegah >= 100){
    4b0e:	20 e0       	ldi	r18, 0x00	; 0
    4b10:	30 e0       	ldi	r19, 0x00	; 0
    4b12:	48 ec       	ldi	r20, 0xC8	; 200
    4b14:	52 e4       	ldi	r21, 0x42	; 66
    4b16:	c7 01       	movw	r24, r14
    4b18:	b6 01       	movw	r22, r12
    4b1a:	0e 94 35 2b 	call	0x566a	; 0x566a <__gesf2>
    4b1e:	88 23       	and	r24, r24
    4b20:	3c f0       	brlt	.+14     	; 0x4b30 <main+0x7e2>
				
					u8g_DrawStr(&u8g, 99, 63, power1);
    4b22:	95 01       	movw	r18, r10
    4b24:	4f e3       	ldi	r20, 0x3F	; 63
    4b26:	63 e6       	ldi	r22, 0x63	; 99
    4b28:	84 e8       	ldi	r24, 0x84	; 132
    4b2a:	92 e0       	ldi	r25, 0x02	; 2
    4b2c:	0e 94 ae 2f 	call	0x5f5c	; 0x5f5c <u8g_DrawStr>
					
				}
				u8g_DrawStr(&u8g, 121, 63, "w");	
    4b30:	22 e7       	ldi	r18, 0x72	; 114
    4b32:	31 e0       	ldi	r19, 0x01	; 1
    4b34:	4f e3       	ldi	r20, 0x3F	; 63
    4b36:	69 e7       	ldi	r22, 0x79	; 121
    4b38:	84 e8       	ldi	r24, 0x84	; 132
    4b3a:	92 e0       	ldi	r25, 0x02	; 2
    4b3c:	0e 94 ae 2f 	call	0x5f5c	; 0x5f5c <u8g_DrawStr>
				}
			
	
		} while ( u8g_NextPage(&u8g) );
    4b40:	84 e8       	ldi	r24, 0x84	; 132
    4b42:	92 e0       	ldi	r25, 0x02	; 2
    4b44:	0e 94 83 31 	call	0x6306	; 0x6306 <u8g_NextPage>
		ftoa(power_valuegah, power1, 0);
			
		

		u8g_FirstPage(&u8g);
		do{	//x,y
    4b48:	81 11       	cpse	r24, r1
    4b4a:	f8 ce       	rjmp	.-528    	; 0x493c <main+0x5ee>
				u8g_DrawStr(&u8g, 121, 63, "w");	
				}
			
	
		} while ( u8g_NextPage(&u8g) );
		u8g_Delay(330);
    4b4c:	8a e4       	ldi	r24, 0x4A	; 74
    4b4e:	91 e0       	ldi	r25, 0x01	; 1
    4b50:	0e 94 b8 2d 	call	0x5b70	; 0x5b70 <u8g_Delay>
	}
    4b54:	8b cc       	rjmp	.-1770   	; 0x446c <main+0x11e>
	//Hardware spi enabled, clk/16 mode, master mode, LMP8358 will require min 200ns for clk period
	SPCR=0b01010010; //0b01010001; //rising edge sampling
	SPSR=0b00000000;
	RWLMP8358(); //sets right values to the instrumentation amplifier
	//SPCR=0b01010000; //4x
	u8g_setup();
    4b56:	80 e0       	ldi	r24, 0x00	; 0
    4b58:	90 e0       	ldi	r25, 0x00	; 0
    4b5a:	38 cc       	rjmp	.-1936   	; 0x43cc <main+0x7e>
				save_eeprom();
				saved_sign=TEMP_SIGN_TIME;
			}
			
			if( save_time == 0 && saved==0){
				saved=1;
    4b5c:	81 e0       	ldi	r24, 0x01	; 1
    4b5e:	80 93 50 01 	sts	0x0150, r24
    4b62:	84 e6       	ldi	r24, 0x64	; 100
    4b64:	90 e0       	ldi	r25, 0x00	; 0
    4b66:	b2 cd       	rjmp	.-1180   	; 0x46cc <main+0x37e>
					}	
				}		
							
				else if(show_temp==0 && show_time==0){
					
					if(temperature_valuegah >= 100 ){//&& temperature_value < 1000){	
    4b68:	c0 90 88 01 	lds	r12, 0x0188
    4b6c:	d0 90 89 01 	lds	r13, 0x0189
    4b70:	e0 90 8a 01 	lds	r14, 0x018A
    4b74:	f0 90 8b 01 	lds	r15, 0x018B
    4b78:	20 e0       	ldi	r18, 0x00	; 0
    4b7a:	30 e0       	ldi	r19, 0x00	; 0
    4b7c:	48 ec       	ldi	r20, 0xC8	; 200
    4b7e:	52 e4       	ldi	r21, 0x42	; 66
    4b80:	c7 01       	movw	r24, r14
    4b82:	b6 01       	movw	r22, r12
    4b84:	0e 94 35 2b 	call	0x566a	; 0x566a <__gesf2>
    4b88:	88 23       	and	r24, r24
    4b8a:	0c f4       	brge	.+2      	; 0x4b8e <main+0x840>
    4b8c:	47 cf       	rjmp	.-370    	; 0x4a1c <main+0x6ce>
    4b8e:	3e cf       	rjmp	.-388    	; 0x4a0c <main+0x6be>

00004b90 <__vector_11>:
		
				
}

//OCR1A is double buffered so can set a new value anytime, ICR1 is not double buffered
ISR(TIMER1_COMPA_vect){ //Output Compare A Match Interrupt
    4b90:	1f 92       	push	r1
    4b92:	0f 92       	push	r0
    4b94:	0f b6       	in	r0, 0x3f	; 63
    4b96:	0f 92       	push	r0
    4b98:	11 24       	eor	r1, r1
    4b9a:	8f 92       	push	r8
    4b9c:	9f 92       	push	r9
    4b9e:	af 92       	push	r10
    4ba0:	bf 92       	push	r11
    4ba2:	cf 92       	push	r12
    4ba4:	df 92       	push	r13
    4ba6:	ef 92       	push	r14
    4ba8:	ff 92       	push	r15
    4baa:	0f 93       	push	r16
    4bac:	1f 93       	push	r17
    4bae:	2f 93       	push	r18
    4bb0:	3f 93       	push	r19
    4bb2:	4f 93       	push	r20
    4bb4:	5f 93       	push	r21
    4bb6:	6f 93       	push	r22
    4bb8:	7f 93       	push	r23
    4bba:	8f 93       	push	r24
    4bbc:	9f 93       	push	r25
    4bbe:	af 93       	push	r26
    4bc0:	bf 93       	push	r27
    4bc2:	cf 93       	push	r28
    4bc4:	df 93       	push	r29
    4bc6:	ef 93       	push	r30
    4bc8:	ff 93       	push	r31
HEATER_IDLE; //don't use unless testing
    4bca:	44 98       	cbi	0x08, 4	; 8
delay_us(800); //wait at least xxx us for thermocouple voltage to get normal
    4bcc:	80 e2       	ldi	r24, 0x20	; 32
    4bce:	93 e0       	ldi	r25, 0x03	; 3
    4bd0:	0e 94 de 1e 	call	0x3dbc	; 0x3dbc <_Z8delay_usi>
//checking temp and adjusting PWM takes around 800us
ADMUX=0b01000110; //AVcc reference, 1nF cap in Aref pin, ADC6 thermal
    4bd4:	86 e4       	ldi	r24, 0x46	; 70
    4bd6:	80 93 7c 00 	sts	0x007C, r24
temp_value=0;
    4bda:	10 92 b3 01 	sts	0x01B3, r1
temperature_adc_mean=0;
    4bde:	10 92 bd 01 	sts	0x01BD, r1
    4be2:	10 92 bc 01 	sts	0x01BC, r1
while(temp_value < OVERSAMPLING){
    4be6:	80 91 b3 01 	lds	r24, 0x01B3
    4bea:	84 30       	cpi	r24, 0x04	; 4
    4bec:	20 f5       	brcc	.+72     	; 0x4c36 <__vector_11+0xa6>
	delay_us(1);	
	ADCSRA |= (1 << ADSC);	 //start an ADC conversion
    4bee:	ca e7       	ldi	r28, 0x7A	; 122
    4bf0:	d0 e0       	ldi	r29, 0x00	; 0
	while(ADCSRA & _BV(ADSC));    //wait until conversion is complete
	temperature_adc_mean+=ADC;
    4bf2:	08 e7       	ldi	r16, 0x78	; 120
    4bf4:	10 e0       	ldi	r17, 0x00	; 0
//checking temp and adjusting PWM takes around 800us
ADMUX=0b01000110; //AVcc reference, 1nF cap in Aref pin, ADC6 thermal
temp_value=0;
temperature_adc_mean=0;
while(temp_value < OVERSAMPLING){
	delay_us(1);	
    4bf6:	81 e0       	ldi	r24, 0x01	; 1
    4bf8:	90 e0       	ldi	r25, 0x00	; 0
    4bfa:	0e 94 de 1e 	call	0x3dbc	; 0x3dbc <_Z8delay_usi>
	ADCSRA |= (1 << ADSC);	 //start an ADC conversion
    4bfe:	88 81       	ld	r24, Y
    4c00:	80 64       	ori	r24, 0x40	; 64
    4c02:	88 83       	st	Y, r24
	while(ADCSRA & _BV(ADSC));    //wait until conversion is complete
    4c04:	88 81       	ld	r24, Y
    4c06:	86 fd       	sbrc	r24, 6
    4c08:	fd cf       	rjmp	.-6      	; 0x4c04 <__vector_11+0x74>
	temperature_adc_mean+=ADC;
    4c0a:	f8 01       	movw	r30, r16
    4c0c:	80 81       	ld	r24, Z
    4c0e:	91 81       	ldd	r25, Z+1	; 0x01
    4c10:	20 91 bc 01 	lds	r18, 0x01BC
    4c14:	30 91 bd 01 	lds	r19, 0x01BD
    4c18:	82 0f       	add	r24, r18
    4c1a:	93 1f       	adc	r25, r19
    4c1c:	90 93 bd 01 	sts	0x01BD, r25
    4c20:	80 93 bc 01 	sts	0x01BC, r24
	temp_value++;
    4c24:	80 91 b3 01 	lds	r24, 0x01B3
    4c28:	8f 5f       	subi	r24, 0xFF	; 255
    4c2a:	80 93 b3 01 	sts	0x01B3, r24
delay_us(800); //wait at least xxx us for thermocouple voltage to get normal
//checking temp and adjusting PWM takes around 800us
ADMUX=0b01000110; //AVcc reference, 1nF cap in Aref pin, ADC6 thermal
temp_value=0;
temperature_adc_mean=0;
while(temp_value < OVERSAMPLING){
    4c2e:	80 91 b3 01 	lds	r24, 0x01B3
    4c32:	84 30       	cpi	r24, 0x04	; 4
    4c34:	00 f3       	brcs	.-64     	; 0x4bf6 <__vector_11+0x66>
	ADCSRA |= (1 << ADSC);	 //start an ADC conversion
	while(ADCSRA & _BV(ADSC));    //wait until conversion is complete
	temperature_adc_mean+=ADC;
	temp_value++;
}
temperature_adc_mean=round(temperature_adc_mean/OVERSAMPLING);
    4c36:	60 91 bc 01 	lds	r22, 0x01BC
    4c3a:	70 91 bd 01 	lds	r23, 0x01BD
    4c3e:	76 95       	lsr	r23
    4c40:	67 95       	ror	r22
    4c42:	76 95       	lsr	r23
    4c44:	67 95       	ror	r22
    4c46:	80 e0       	ldi	r24, 0x00	; 0
    4c48:	90 e0       	ldi	r25, 0x00	; 0
    4c4a:	0e 94 83 2a 	call	0x5506	; 0x5506 <__floatunsisf>
    4c4e:	0e 94 e8 2b 	call	0x57d0	; 0x57d0 <round>
    4c52:	0e 94 57 2a 	call	0x54ae	; 0x54ae <__fixunssfsi>
    4c56:	70 93 bd 01 	sts	0x01BD, r23
    4c5a:	60 93 bc 01 	sts	0x01BC, r22

if( keep_heater_off==1 || temperature_adc_mean > 1000 || WRONG_AMPLIFICATION==1){
    4c5e:	80 91 b9 01 	lds	r24, 0x01B9
    4c62:	81 30       	cpi	r24, 0x01	; 1
    4c64:	59 f0       	breq	.+22     	; 0x4c7c <__vector_11+0xec>
    4c66:	80 91 bc 01 	lds	r24, 0x01BC
    4c6a:	90 91 bd 01 	lds	r25, 0x01BD
    4c6e:	89 3e       	cpi	r24, 0xE9	; 233
    4c70:	93 40       	sbci	r25, 0x03	; 3
    4c72:	20 f4       	brcc	.+8      	; 0x4c7c <__vector_11+0xec>
    4c74:	90 91 9c 01 	lds	r25, 0x019C
    4c78:	91 30       	cpi	r25, 0x01	; 1
    4c7a:	81 f4       	brne	.+32     	; 0x4c9c <__vector_11+0x10c>
	duty=0;
    4c7c:	10 92 c1 01 	sts	0x01C1, r1
    4c80:	10 92 c0 01 	sts	0x01C0, r1
	disconnected=1;
    4c84:	81 e0       	ldi	r24, 0x01	; 1
    4c86:	80 93 ba 01 	sts	0x01BA, r24
	OCR1A=duty;
    4c8a:	80 91 c0 01 	lds	r24, 0x01C0
    4c8e:	90 91 c1 01 	lds	r25, 0x01C1
    4c92:	90 93 89 00 	sts	0x0089, r25
    4c96:	80 93 88 00 	sts	0x0088, r24
    4c9a:	5d c1       	rjmp	.+698    	; 0x4f56 <__vector_11+0x3c6>
}
else if( keep_heater_off==0 && WRONG_AMPLIFICATION==0 ){ 
    4c9c:	80 91 b9 01 	lds	r24, 0x01B9
    4ca0:	81 11       	cpse	r24, r1
    4ca2:	59 c1       	rjmp	.+690    	; 0x4f56 <__vector_11+0x3c6>
    4ca4:	99 23       	and	r25, r25
    4ca6:	09 f4       	brne	.+2      	; 0x4caa <__vector_11+0x11a>
    4ca8:	58 c1       	rjmp	.+688    	; 0x4f5a <__vector_11+0x3ca>
    4caa:	55 c1       	rjmp	.+682    	; 0x4f56 <__vector_11+0x3c6>
	err=(int32_t)TARGET_TEMPERATURE-temperature_value; //calculate the temperature difference
	P_err=err; //Proportional is directly the difference times P_val (bang bang value)
	
	mean_I_err[I_memory-1]=(int32_t)err;
	mean_I_error=0;
	for (int i=0;i< I_memory-1;i++){
    4cac:	f9 01       	movw	r30, r18
		mean_I_err[i]=(int32_t)mean_I_err[i+1];		
    4cae:	9f 01       	movw	r18, r30
    4cb0:	2f 5f       	subi	r18, 0xFF	; 255
    4cb2:	3f 4f       	sbci	r19, 0xFF	; 255
    4cb4:	d9 01       	movw	r26, r18
    4cb6:	aa 0f       	add	r26, r26
    4cb8:	bb 1f       	adc	r27, r27
    4cba:	aa 0f       	add	r26, r26
    4cbc:	bb 1f       	adc	r27, r27
    4cbe:	a2 53       	subi	r26, 0x32	; 50
    4cc0:	be 4f       	sbci	r27, 0xFE	; 254
    4cc2:	8d 91       	ld	r24, X+
    4cc4:	9d 91       	ld	r25, X+
    4cc6:	0d 90       	ld	r0, X+
    4cc8:	bc 91       	ld	r27, X
    4cca:	a0 2d       	mov	r26, r0
    4ccc:	ee 0f       	add	r30, r30
    4cce:	ff 1f       	adc	r31, r31
    4cd0:	ee 0f       	add	r30, r30
    4cd2:	ff 1f       	adc	r31, r31
    4cd4:	e2 53       	subi	r30, 0x32	; 50
    4cd6:	fe 4f       	sbci	r31, 0xFE	; 254
    4cd8:	80 83       	st	Z, r24
    4cda:	91 83       	std	Z+1, r25	; 0x01
    4cdc:	a2 83       	std	Z+2, r26	; 0x02
    4cde:	b3 83       	std	Z+3, r27	; 0x03
		mean_I_error+=(int32_t)mean_I_err[i];
    4ce0:	80 81       	ld	r24, Z
    4ce2:	91 81       	ldd	r25, Z+1	; 0x01
    4ce4:	a2 81       	ldd	r26, Z+2	; 0x02
    4ce6:	b3 81       	ldd	r27, Z+3	; 0x03
    4ce8:	40 91 ca 01 	lds	r20, 0x01CA
    4cec:	50 91 cb 01 	lds	r21, 0x01CB
    4cf0:	60 91 cc 01 	lds	r22, 0x01CC
    4cf4:	70 91 cd 01 	lds	r23, 0x01CD
    4cf8:	84 0f       	add	r24, r20
    4cfa:	95 1f       	adc	r25, r21
    4cfc:	a6 1f       	adc	r26, r22
    4cfe:	b7 1f       	adc	r27, r23
    4d00:	80 93 ca 01 	sts	0x01CA, r24
    4d04:	90 93 cb 01 	sts	0x01CB, r25
    4d08:	a0 93 cc 01 	sts	0x01CC, r26
    4d0c:	b0 93 cd 01 	sts	0x01CD, r27
	err=(int32_t)TARGET_TEMPERATURE-temperature_value; //calculate the temperature difference
	P_err=err; //Proportional is directly the difference times P_val (bang bang value)
	
	mean_I_err[I_memory-1]=(int32_t)err;
	mean_I_error=0;
	for (int i=0;i< I_memory-1;i++){
    4d10:	27 32       	cpi	r18, 0x27	; 39
    4d12:	31 05       	cpc	r19, r1
    4d14:	59 f6       	brne	.-106    	; 0x4cac <__vector_11+0x11c>
		mean_I_err[i]=(int32_t)mean_I_err[i+1];		
		mean_I_error+=(int32_t)mean_I_err[i];
	}	
	mean_I_error+=(int32_t)err;
    4d16:	80 91 7a 02 	lds	r24, 0x027A
    4d1a:	90 91 7b 02 	lds	r25, 0x027B
    4d1e:	a0 91 7c 02 	lds	r26, 0x027C
    4d22:	b0 91 7d 02 	lds	r27, 0x027D
    4d26:	40 91 ca 01 	lds	r20, 0x01CA
    4d2a:	50 91 cb 01 	lds	r21, 0x01CB
    4d2e:	60 91 cc 01 	lds	r22, 0x01CC
    4d32:	70 91 cd 01 	lds	r23, 0x01CD
    4d36:	84 0f       	add	r24, r20
    4d38:	95 1f       	adc	r25, r21
    4d3a:	a6 1f       	adc	r26, r22
    4d3c:	b7 1f       	adc	r27, r23
    4d3e:	80 93 ca 01 	sts	0x01CA, r24
    4d42:	90 93 cb 01 	sts	0x01CB, r25
    4d46:	a0 93 cc 01 	sts	0x01CC, r26
    4d4a:	b0 93 cd 01 	sts	0x01CD, r27
		
	I_err=(int32_t)mean_I_error;
    4d4e:	80 91 ca 01 	lds	r24, 0x01CA
    4d52:	90 91 cb 01 	lds	r25, 0x01CB
    4d56:	a0 91 cc 01 	lds	r26, 0x01CC
    4d5a:	b0 91 cd 01 	lds	r27, 0x01CD
    4d5e:	80 93 c6 01 	sts	0x01C6, r24
    4d62:	90 93 c7 01 	sts	0x01C7, r25
    4d66:	a0 93 c8 01 	sts	0x01C8, r26
    4d6a:	b0 93 c9 01 	sts	0x01C9, r27
	
	//I_err+=err_old; //integral is all the previous values summed (this will cause it to overshoot a lot)
	D_err=(int32_t)err-err_old;	//derivative is the difference between earlier and this one (helps lower overshooting)
    4d6e:	80 91 7a 02 	lds	r24, 0x027A
    4d72:	90 91 7b 02 	lds	r25, 0x027B
    4d76:	a0 91 7c 02 	lds	r26, 0x027C
    4d7a:	b0 91 7d 02 	lds	r27, 0x027D
    4d7e:	40 91 76 02 	lds	r20, 0x0276
    4d82:	50 91 77 02 	lds	r21, 0x0277
    4d86:	60 91 78 02 	lds	r22, 0x0278
    4d8a:	70 91 79 02 	lds	r23, 0x0279
    4d8e:	84 1b       	sub	r24, r20
    4d90:	95 0b       	sbc	r25, r21
    4d92:	a6 0b       	sbc	r26, r22
    4d94:	b7 0b       	sbc	r27, r23
    4d96:	80 93 6e 02 	sts	0x026E, r24
    4d9a:	90 93 6f 02 	sts	0x026F, r25
    4d9e:	a0 93 70 02 	sts	0x0270, r26
    4da2:	b0 93 71 02 	sts	0x0271, r27
	PID=(int32_t)P_val*P_err + I_val*I_err + D_val*D_err;
    4da6:	80 90 72 02 	lds	r8, 0x0272
    4daa:	90 90 73 02 	lds	r9, 0x0273
    4dae:	a0 90 74 02 	lds	r10, 0x0274
    4db2:	b0 90 75 02 	lds	r11, 0x0275
    4db6:	80 91 c6 01 	lds	r24, 0x01C6
    4dba:	90 91 c7 01 	lds	r25, 0x01C7
    4dbe:	a0 91 c8 01 	lds	r26, 0x01C8
    4dc2:	b0 91 c9 01 	lds	r27, 0x01C9
    4dc6:	20 91 6e 02 	lds	r18, 0x026E
    4dca:	30 91 6f 02 	lds	r19, 0x026F
    4dce:	40 91 70 02 	lds	r20, 0x0270
    4dd2:	50 91 71 02 	lds	r21, 0x0271
    4dd6:	75 01       	movw	r14, r10
    4dd8:	64 01       	movw	r12, r8
    4dda:	cc 0c       	add	r12, r12
    4ddc:	dd 1c       	adc	r13, r13
    4dde:	ee 1c       	adc	r14, r14
    4de0:	ff 1c       	adc	r15, r15
    4de2:	8c 0c       	add	r8, r12
    4de4:	9d 1c       	adc	r9, r13
    4de6:	ae 1c       	adc	r10, r14
    4de8:	bf 1c       	adc	r11, r15
    4dea:	75 01       	movw	r14, r10
    4dec:	64 01       	movw	r12, r8
    4dee:	cc 0c       	add	r12, r12
    4df0:	dd 1c       	adc	r13, r13
    4df2:	ee 1c       	adc	r14, r14
    4df4:	ff 1c       	adc	r15, r15
    4df6:	cc 0c       	add	r12, r12
    4df8:	dd 1c       	adc	r13, r13
    4dfa:	ee 1c       	adc	r14, r14
    4dfc:	ff 1c       	adc	r15, r15
    4dfe:	c8 0c       	add	r12, r8
    4e00:	d9 1c       	adc	r13, r9
    4e02:	ea 1c       	adc	r14, r10
    4e04:	fb 1c       	adc	r15, r11
    4e06:	cc 0c       	add	r12, r12
    4e08:	dd 1c       	adc	r13, r13
    4e0a:	ee 1c       	adc	r14, r14
    4e0c:	ff 1c       	adc	r15, r15
    4e0e:	4c 01       	movw	r8, r24
    4e10:	5d 01       	movw	r10, r26
    4e12:	88 0c       	add	r8, r8
    4e14:	99 1c       	adc	r9, r9
    4e16:	aa 1c       	adc	r10, r10
    4e18:	bb 1c       	adc	r11, r11
    4e1a:	88 0d       	add	r24, r8
    4e1c:	99 1d       	adc	r25, r9
    4e1e:	aa 1d       	adc	r26, r10
    4e20:	bb 1d       	adc	r27, r11
    4e22:	c8 0e       	add	r12, r24
    4e24:	d9 1e       	adc	r13, r25
    4e26:	ea 1e       	adc	r14, r26
    4e28:	fb 1e       	adc	r15, r27
    4e2a:	a2 e3       	ldi	r26, 0x32	; 50
    4e2c:	b0 e0       	ldi	r27, 0x00	; 0
    4e2e:	0e 94 d3 35 	call	0x6ba6	; 0x6ba6 <__muluhisi3>
    4e32:	c6 0e       	add	r12, r22
    4e34:	d7 1e       	adc	r13, r23
    4e36:	e8 1e       	adc	r14, r24
    4e38:	f9 1e       	adc	r15, r25
    4e3a:	c0 92 7e 02 	sts	0x027E, r12
    4e3e:	d0 92 7f 02 	sts	0x027F, r13
    4e42:	e0 92 80 02 	sts	0x0280, r14
    4e46:	f0 92 81 02 	sts	0x0281, r15
	if(PID > MAXIMUM_DUTY){ //95% duty cycle max, recalculate here if current drain is over 9A
    4e4a:	40 91 51 01 	lds	r20, 0x0151
    4e4e:	50 91 52 01 	lds	r21, 0x0152
    4e52:	80 91 7e 02 	lds	r24, 0x027E
    4e56:	90 91 7f 02 	lds	r25, 0x027F
    4e5a:	a0 91 80 02 	lds	r26, 0x0280
    4e5e:	b0 91 81 02 	lds	r27, 0x0281
    4e62:	60 e0       	ldi	r22, 0x00	; 0
    4e64:	70 e0       	ldi	r23, 0x00	; 0
    4e66:	48 17       	cp	r20, r24
    4e68:	59 07       	cpc	r21, r25
    4e6a:	6a 07       	cpc	r22, r26
    4e6c:	7b 07       	cpc	r23, r27
    4e6e:	7c f4       	brge	.+30     	; 0x4e8e <__vector_11+0x2fe>
		PID=MAXIMUM_DUTY;
    4e70:	80 91 51 01 	lds	r24, 0x0151
    4e74:	90 91 52 01 	lds	r25, 0x0152
    4e78:	a0 e0       	ldi	r26, 0x00	; 0
    4e7a:	b0 e0       	ldi	r27, 0x00	; 0
    4e7c:	80 93 7e 02 	sts	0x027E, r24
    4e80:	90 93 7f 02 	sts	0x027F, r25
    4e84:	a0 93 80 02 	sts	0x0280, r26
    4e88:	b0 93 81 02 	sts	0x0281, r27
    4e8c:	12 c0       	rjmp	.+36     	; 0x4eb2 <__vector_11+0x322>
	}
	else if(PID < 0){ 
    4e8e:	80 91 7e 02 	lds	r24, 0x027E
    4e92:	90 91 7f 02 	lds	r25, 0x027F
    4e96:	a0 91 80 02 	lds	r26, 0x0280
    4e9a:	b0 91 81 02 	lds	r27, 0x0281
    4e9e:	bb 23       	and	r27, r27
    4ea0:	44 f4       	brge	.+16     	; 0x4eb2 <__vector_11+0x322>
		PID=0;
    4ea2:	10 92 7e 02 	sts	0x027E, r1
    4ea6:	10 92 7f 02 	sts	0x027F, r1
    4eaa:	10 92 80 02 	sts	0x0280, r1
    4eae:	10 92 81 02 	sts	0x0281, r1
	} 
	duty=(uint16_t)PID;
    4eb2:	80 91 7e 02 	lds	r24, 0x027E
    4eb6:	90 91 7f 02 	lds	r25, 0x027F
    4eba:	a0 91 80 02 	lds	r26, 0x0280
    4ebe:	b0 91 81 02 	lds	r27, 0x0281
    4ec2:	90 93 c1 01 	sts	0x01C1, r25
    4ec6:	80 93 c0 01 	sts	0x01C0, r24
	OCR1A=duty;
    4eca:	80 91 c0 01 	lds	r24, 0x01C0
    4ece:	90 91 c1 01 	lds	r25, 0x01C1
    4ed2:	90 93 89 00 	sts	0x0089, r25
    4ed6:	80 93 88 00 	sts	0x0088, r24

	if((temperature_value <= TARGET_TEMPERATURE+5 && temperature_value +5 >= TARGET_TEMPERATURE ) && speaker_now==0){
    4eda:	60 91 be 01 	lds	r22, 0x01BE
    4ede:	70 91 bf 01 	lds	r23, 0x01BF
    4ee2:	c0 90 ae 01 	lds	r12, 0x01AE
    4ee6:	d0 90 af 01 	lds	r13, 0x01AF
    4eea:	e0 90 b0 01 	lds	r14, 0x01B0
    4eee:	f0 90 b1 01 	lds	r15, 0x01B1
    4ef2:	6b 5f       	subi	r22, 0xFB	; 251
    4ef4:	7f 4f       	sbci	r23, 0xFF	; 255
    4ef6:	80 e0       	ldi	r24, 0x00	; 0
    4ef8:	90 e0       	ldi	r25, 0x00	; 0
    4efa:	0e 94 83 2a 	call	0x5506	; 0x5506 <__floatunsisf>
    4efe:	a7 01       	movw	r20, r14
    4f00:	96 01       	movw	r18, r12
    4f02:	0e 94 35 2b 	call	0x566a	; 0x566a <__gesf2>
    4f06:	88 23       	and	r24, r24
    4f08:	34 f1       	brlt	.+76     	; 0x4f56 <__vector_11+0x3c6>
    4f0a:	60 91 ae 01 	lds	r22, 0x01AE
    4f0e:	70 91 af 01 	lds	r23, 0x01AF
    4f12:	80 91 b0 01 	lds	r24, 0x01B0
    4f16:	90 91 b1 01 	lds	r25, 0x01B1
    4f1a:	00 91 be 01 	lds	r16, 0x01BE
    4f1e:	10 91 bf 01 	lds	r17, 0x01BF
    4f22:	20 e0       	ldi	r18, 0x00	; 0
    4f24:	30 e0       	ldi	r19, 0x00	; 0
    4f26:	40 ea       	ldi	r20, 0xA0	; 160
    4f28:	50 e4       	ldi	r21, 0x40	; 64
    4f2a:	0e 94 82 29 	call	0x5304	; 0x5304 <__addsf3>
    4f2e:	6b 01       	movw	r12, r22
    4f30:	7c 01       	movw	r14, r24
    4f32:	b8 01       	movw	r22, r16
    4f34:	80 e0       	ldi	r24, 0x00	; 0
    4f36:	90 e0       	ldi	r25, 0x00	; 0
    4f38:	0e 94 83 2a 	call	0x5506	; 0x5506 <__floatunsisf>
    4f3c:	9b 01       	movw	r18, r22
    4f3e:	ac 01       	movw	r20, r24
    4f40:	c7 01       	movw	r24, r14
    4f42:	b6 01       	movw	r22, r12
    4f44:	0e 94 35 2b 	call	0x566a	; 0x566a <__gesf2>
    4f48:	88 23       	and	r24, r24
    4f4a:	2c f0       	brlt	.+10     	; 0x4f56 <__vector_11+0x3c6>
    4f4c:	80 91 b2 01 	lds	r24, 0x01B2
    4f50:	88 23       	and	r24, r24
    4f52:	09 f4       	brne	.+2      	; 0x4f56 <__vector_11+0x3c6>
    4f54:	6d c0       	rjmp	.+218    	; 0x5030 <__vector_11+0x4a0>
		delay_ms(3);
		SPEAKER_IDLE;		
	}
}

HEATER_ACTIVE;
    4f56:	44 9a       	sbi	0x08, 4	; 8
    4f58:	7f c0       	rjmp	.+254    	; 0x5058 <__vector_11+0x4c8>
	duty=0;
	disconnected=1;
	OCR1A=duty;
}
else if( keep_heater_off==0 && WRONG_AMPLIFICATION==0 ){ 
	disconnected=0;
    4f5a:	10 92 ba 01 	sts	0x01BA, r1
	//calculate temperature	
	temperature_value = dsp_lookup(IrRh500amp,temperature_adc_mean);
    4f5e:	60 91 bc 01 	lds	r22, 0x01BC
    4f62:	70 91 bd 01 	lds	r23, 0x01BD
    4f66:	80 e0       	ldi	r24, 0x00	; 0
    4f68:	91 e0       	ldi	r25, 0x01	; 1
    4f6a:	0e 94 a2 1f 	call	0x3f44	; 0x3f44 <_Z10dsp_lookupPA2_jj>
    4f6e:	60 93 ae 01 	sts	0x01AE, r22
    4f72:	70 93 af 01 	sts	0x01AF, r23
    4f76:	80 93 b0 01 	sts	0x01B0, r24
    4f7a:	90 93 b1 01 	sts	0x01B1, r25
		
	//temperature_value =abs(temperature_value);
	//temperature_value+=25; //due offset voltage temperature drift compensation in op amp 
	
	//PID	
	err_old=err; //save old value
    4f7e:	80 91 7a 02 	lds	r24, 0x027A
    4f82:	90 91 7b 02 	lds	r25, 0x027B
    4f86:	a0 91 7c 02 	lds	r26, 0x027C
    4f8a:	b0 91 7d 02 	lds	r27, 0x027D
    4f8e:	80 93 76 02 	sts	0x0276, r24
    4f92:	90 93 77 02 	sts	0x0277, r25
    4f96:	a0 93 78 02 	sts	0x0278, r26
    4f9a:	b0 93 79 02 	sts	0x0279, r27
	err=(int32_t)TARGET_TEMPERATURE-temperature_value; //calculate the temperature difference
    4f9e:	60 91 be 01 	lds	r22, 0x01BE
    4fa2:	70 91 bf 01 	lds	r23, 0x01BF
    4fa6:	c0 90 ae 01 	lds	r12, 0x01AE
    4faa:	d0 90 af 01 	lds	r13, 0x01AF
    4fae:	e0 90 b0 01 	lds	r14, 0x01B0
    4fb2:	f0 90 b1 01 	lds	r15, 0x01B1
    4fb6:	80 e0       	ldi	r24, 0x00	; 0
    4fb8:	90 e0       	ldi	r25, 0x00	; 0
    4fba:	0e 94 85 2a 	call	0x550a	; 0x550a <__floatsisf>
    4fbe:	a7 01       	movw	r20, r14
    4fc0:	96 01       	movw	r18, r12
    4fc2:	0e 94 81 29 	call	0x5302	; 0x5302 <__subsf3>
    4fc6:	0e 94 52 2a 	call	0x54a4	; 0x54a4 <__fixsfsi>
    4fca:	60 93 7a 02 	sts	0x027A, r22
    4fce:	70 93 7b 02 	sts	0x027B, r23
    4fd2:	80 93 7c 02 	sts	0x027C, r24
    4fd6:	90 93 7d 02 	sts	0x027D, r25
	P_err=err; //Proportional is directly the difference times P_val (bang bang value)
    4fda:	80 91 7a 02 	lds	r24, 0x027A
    4fde:	90 91 7b 02 	lds	r25, 0x027B
    4fe2:	a0 91 7c 02 	lds	r26, 0x027C
    4fe6:	b0 91 7d 02 	lds	r27, 0x027D
    4fea:	80 93 72 02 	sts	0x0272, r24
    4fee:	90 93 73 02 	sts	0x0273, r25
    4ff2:	a0 93 74 02 	sts	0x0274, r26
    4ff6:	b0 93 75 02 	sts	0x0275, r27
	
	mean_I_err[I_memory-1]=(int32_t)err;
    4ffa:	80 91 7a 02 	lds	r24, 0x027A
    4ffe:	90 91 7b 02 	lds	r25, 0x027B
    5002:	a0 91 7c 02 	lds	r26, 0x027C
    5006:	b0 91 7d 02 	lds	r27, 0x027D
    500a:	80 93 6a 02 	sts	0x026A, r24
    500e:	90 93 6b 02 	sts	0x026B, r25
    5012:	a0 93 6c 02 	sts	0x026C, r26
    5016:	b0 93 6d 02 	sts	0x026D, r27
	mean_I_error=0;
    501a:	10 92 ca 01 	sts	0x01CA, r1
    501e:	10 92 cb 01 	sts	0x01CB, r1
    5022:	10 92 cc 01 	sts	0x01CC, r1
    5026:	10 92 cd 01 	sts	0x01CD, r1
	for (int i=0;i< I_memory-1;i++){
    502a:	e0 e0       	ldi	r30, 0x00	; 0
    502c:	f0 e0       	ldi	r31, 0x00	; 0
    502e:	3f ce       	rjmp	.-898    	; 0x4cae <__vector_11+0x11e>
	} 
	duty=(uint16_t)PID;
	OCR1A=duty;

	if((temperature_value <= TARGET_TEMPERATURE+5 && temperature_value +5 >= TARGET_TEMPERATURE ) && speaker_now==0){
		speaker_now=1;
    5030:	81 e0       	ldi	r24, 0x01	; 1
    5032:	80 93 b2 01 	sts	0x01B2, r24
		SPEAKER_ACTIVE;
    5036:	5c 9a       	sbi	0x0b, 4	; 11
		delay_ms(3);
    5038:	83 e0       	ldi	r24, 0x03	; 3
    503a:	90 e0       	ldi	r25, 0x00	; 0
    503c:	0e 94 ed 1e 	call	0x3dda	; 0x3dda <_Z8delay_msi>
		SPEAKER_IDLE;
    5040:	5c 98       	cbi	0x0b, 4	; 11
		delay_ms(3);
    5042:	83 e0       	ldi	r24, 0x03	; 3
    5044:	90 e0       	ldi	r25, 0x00	; 0
    5046:	0e 94 ed 1e 	call	0x3dda	; 0x3dda <_Z8delay_msi>
		SPEAKER_ACTIVE;
    504a:	5c 9a       	sbi	0x0b, 4	; 11
		delay_ms(3);
    504c:	83 e0       	ldi	r24, 0x03	; 3
    504e:	90 e0       	ldi	r25, 0x00	; 0
    5050:	0e 94 ed 1e 	call	0x3dda	; 0x3dda <_Z8delay_msi>
		SPEAKER_IDLE;		
    5054:	5c 98       	cbi	0x0b, 4	; 11
    5056:	7f cf       	rjmp	.-258    	; 0x4f56 <__vector_11+0x3c6>
	}
}

HEATER_ACTIVE;
}
    5058:	ff 91       	pop	r31
    505a:	ef 91       	pop	r30
    505c:	df 91       	pop	r29
    505e:	cf 91       	pop	r28
    5060:	bf 91       	pop	r27
    5062:	af 91       	pop	r26
    5064:	9f 91       	pop	r25
    5066:	8f 91       	pop	r24
    5068:	7f 91       	pop	r23
    506a:	6f 91       	pop	r22
    506c:	5f 91       	pop	r21
    506e:	4f 91       	pop	r20
    5070:	3f 91       	pop	r19
    5072:	2f 91       	pop	r18
    5074:	1f 91       	pop	r17
    5076:	0f 91       	pop	r16
    5078:	ff 90       	pop	r15
    507a:	ef 90       	pop	r14
    507c:	df 90       	pop	r13
    507e:	cf 90       	pop	r12
    5080:	bf 90       	pop	r11
    5082:	af 90       	pop	r10
    5084:	9f 90       	pop	r9
    5086:	8f 90       	pop	r8
    5088:	0f 90       	pop	r0
    508a:	0f be       	out	0x3f, r0	; 63
    508c:	0f 90       	pop	r0
    508e:	1f 90       	pop	r1
    5090:	18 95       	reti

00005092 <__vector_14>:

ISR(TIMER0_COMPA_vect) { //1.6ms tick 1s with 625 rounds for 1sec
    5092:	1f 92       	push	r1
    5094:	0f 92       	push	r0
    5096:	0f b6       	in	r0, 0x3f	; 63
    5098:	0f 92       	push	r0
    509a:	11 24       	eor	r1, r1
    509c:	2f 93       	push	r18
    509e:	8f 93       	push	r24
    50a0:	9f 93       	push	r25

timer_1s++;
    50a2:	80 91 c2 01 	lds	r24, 0x01C2
    50a6:	90 91 c3 01 	lds	r25, 0x01C3
    50aa:	01 96       	adiw	r24, 0x01	; 1
    50ac:	90 93 c3 01 	sts	0x01C3, r25
    50b0:	80 93 c2 01 	sts	0x01C2, r24
if(timer_1s == 313){
    50b4:	80 91 c2 01 	lds	r24, 0x01C2
    50b8:	90 91 c3 01 	lds	r25, 0x01C3
    50bc:	89 33       	cpi	r24, 0x39	; 57
    50be:	91 40       	sbci	r25, 0x01	; 1
    50c0:	19 f4       	brne	.+6      	; 0x50c8 <__vector_14+0x36>
	cmd_pulse=1; //time to refresh display
    50c2:	81 e0       	ldi	r24, 0x01	; 1
    50c4:	80 93 bb 01 	sts	0x01BB, r24
}

if(timer_1s >= 625){ //1 seconds has passed
    50c8:	80 91 c2 01 	lds	r24, 0x01C2
    50cc:	90 91 c3 01 	lds	r25, 0x01C3
    50d0:	81 37       	cpi	r24, 0x71	; 113
    50d2:	92 40       	sbci	r25, 0x02	; 2
    50d4:	d0 f0       	brcs	.+52     	; 0x510a <__vector_14+0x78>
	cmd_pulse=1; //time to refresh display
    50d6:	81 e0       	ldi	r24, 0x01	; 1
    50d8:	80 93 bb 01 	sts	0x01BB, r24
	timer_1s=0; //zero the timer if 1 second has been reached
    50dc:	10 92 c3 01 	sts	0x01C3, r1
    50e0:	10 92 c2 01 	sts	0x01C2, r1
	seconds++; //increase if under 59 sec
    50e4:	80 91 c4 01 	lds	r24, 0x01C4
    50e8:	90 91 c5 01 	lds	r25, 0x01C5
    50ec:	01 96       	adiw	r24, 0x01	; 1
    50ee:	90 93 c5 01 	sts	0x01C5, r25
    50f2:	80 93 c4 01 	sts	0x01C4, r24
	if(seconds > 59){
    50f6:	80 91 c4 01 	lds	r24, 0x01C4
    50fa:	90 91 c5 01 	lds	r25, 0x01C5
    50fe:	cc 97       	sbiw	r24, 0x3c	; 60
    5100:	20 f0       	brcs	.+8      	; 0x510a <__vector_14+0x78>
		seconds=0; //zero if
    5102:	10 92 c5 01 	sts	0x01C5, r1
    5106:	10 92 c4 01 	sts	0x01C4, r1
		//one minute has passed here
	}
}
}
    510a:	9f 91       	pop	r25
    510c:	8f 91       	pop	r24
    510e:	2f 91       	pop	r18
    5110:	0f 90       	pop	r0
    5112:	0f be       	out	0x3f, r0	; 63
    5114:	0f 90       	pop	r0
    5116:	1f 90       	pop	r1
    5118:	18 95       	reti

0000511a <__vector_1>:

//external interrupts for encoder
ISR(INT0_vect) { //encoder A
    511a:	1f 92       	push	r1
    511c:	0f 92       	push	r0
    511e:	0f b6       	in	r0, 0x3f	; 63
    5120:	0f 92       	push	r0
    5122:	11 24       	eor	r1, r1
    5124:	2f 93       	push	r18
    5126:	3f 93       	push	r19
    5128:	4f 93       	push	r20
    512a:	5f 93       	push	r21
    512c:	6f 93       	push	r22
    512e:	8f 93       	push	r24
    5130:	9f 93       	push	r25
    5132:	ef 93       	push	r30
    5134:	ff 93       	push	r31
old_AB <<= 2;                //remember previous state
    5136:	40 91 83 02 	lds	r20, 0x0283
    513a:	44 0f       	add	r20, r20
    513c:	44 0f       	add	r20, r20
    513e:	40 93 83 02 	sts	0x0283, r20
old_AB |= ( ENCA | ENCB<<1 );  //add current states
    5142:	59 b1       	in	r21, 0x09	; 9
    5144:	69 b1       	in	r22, 0x09	; 9
    5146:	63 fb       	bst	r22, 3
    5148:	88 27       	eor	r24, r24
    514a:	80 f9       	bld	r24, 0
    514c:	90 e0       	ldi	r25, 0x00	; 0
    514e:	88 0f       	add	r24, r24
    5150:	99 1f       	adc	r25, r25
    5152:	84 2b       	or	r24, r20
    5154:	52 fb       	bst	r21, 2
    5156:	22 27       	eor	r18, r18
    5158:	20 f9       	bld	r18, 0
    515a:	30 e0       	ldi	r19, 0x00	; 0
    515c:	82 2b       	or	r24, r18
    515e:	93 2b       	or	r25, r19
    5160:	80 93 83 02 	sts	0x0283, r24
TARGET_TEMPERATURE+=enc_LUT[( old_AB & 0x0f )];
    5164:	20 91 be 01 	lds	r18, 0x01BE
    5168:	30 91 bf 01 	lds	r19, 0x01BF
    516c:	8f 70       	andi	r24, 0x0F	; 15
    516e:	e8 2f       	mov	r30, r24
    5170:	f0 e0       	ldi	r31, 0x00	; 0
    5172:	ec 58       	subi	r30, 0x8C	; 140
    5174:	fe 4f       	sbci	r31, 0xFE	; 254
    5176:	80 81       	ld	r24, Z
    5178:	a9 01       	movw	r20, r18
    517a:	48 0f       	add	r20, r24
    517c:	51 1d       	adc	r21, r1
    517e:	87 fd       	sbrc	r24, 7
    5180:	5a 95       	dec	r21
    5182:	50 93 bf 01 	sts	0x01BF, r21
    5186:	40 93 be 01 	sts	0x01BE, r20
if(TARGET_TEMPERATURE > 1000 || TARGET_TEMPERATURE <0 ){ //if negative
    518a:	80 91 be 01 	lds	r24, 0x01BE
    518e:	90 91 bf 01 	lds	r25, 0x01BF
    5192:	89 3e       	cpi	r24, 0xE9	; 233
    5194:	93 40       	sbci	r25, 0x03	; 3
    5196:	a8 f4       	brcc	.+42     	; 0x51c2 <__vector_1+0xa8>
    5198:	80 91 be 01 	lds	r24, 0x01BE
    519c:	90 91 bf 01 	lds	r25, 0x01BF
	TARGET_TEMPERATURE=0;
}
else if(TARGET_TEMPERATURE <= 1000){
    51a0:	80 91 be 01 	lds	r24, 0x01BE
    51a4:	90 91 bf 01 	lds	r25, 0x01BF
    51a8:	89 3e       	cpi	r24, 0xE9	; 233
    51aa:	93 40       	sbci	r25, 0x03	; 3
    51ac:	70 f4       	brcc	.+28     	; 0x51ca <__vector_1+0xb0>
	show_temp=1;
    51ae:	81 e0       	ldi	r24, 0x01	; 1
    51b0:	80 93 b7 01 	sts	0x01B7, r24
	show_time=TEMP_SHOW_TIME;
    51b4:	84 e0       	ldi	r24, 0x04	; 4
    51b6:	80 93 b6 01 	sts	0x01B6, r24
	save_time=TEMP_SAVE_TIME;
    51ba:	8a e0       	ldi	r24, 0x0A	; 10
    51bc:	80 93 b5 01 	sts	0x01B5, r24
    51c0:	04 c0       	rjmp	.+8      	; 0x51ca <__vector_1+0xb0>
ISR(INT0_vect) { //encoder A
old_AB <<= 2;                //remember previous state
old_AB |= ( ENCA | ENCB<<1 );  //add current states
TARGET_TEMPERATURE+=enc_LUT[( old_AB & 0x0f )];
if(TARGET_TEMPERATURE > 1000 || TARGET_TEMPERATURE <0 ){ //if negative
	TARGET_TEMPERATURE=0;
    51c2:	10 92 bf 01 	sts	0x01BF, r1
    51c6:	10 92 be 01 	sts	0x01BE, r1
	show_temp=1;
	show_time=TEMP_SHOW_TIME;
	save_time=TEMP_SAVE_TIME;
}

}
    51ca:	ff 91       	pop	r31
    51cc:	ef 91       	pop	r30
    51ce:	9f 91       	pop	r25
    51d0:	8f 91       	pop	r24
    51d2:	6f 91       	pop	r22
    51d4:	5f 91       	pop	r21
    51d6:	4f 91       	pop	r20
    51d8:	3f 91       	pop	r19
    51da:	2f 91       	pop	r18
    51dc:	0f 90       	pop	r0
    51de:	0f be       	out	0x3f, r0	; 63
    51e0:	0f 90       	pop	r0
    51e2:	1f 90       	pop	r1
    51e4:	18 95       	reti

000051e6 <__vector_2>:

ISR(INT1_vect) { //encoder B
    51e6:	1f 92       	push	r1
    51e8:	0f 92       	push	r0
    51ea:	0f b6       	in	r0, 0x3f	; 63
    51ec:	0f 92       	push	r0
    51ee:	11 24       	eor	r1, r1
    51f0:	2f 93       	push	r18
    51f2:	3f 93       	push	r19
    51f4:	4f 93       	push	r20
    51f6:	5f 93       	push	r21
    51f8:	6f 93       	push	r22
    51fa:	8f 93       	push	r24
    51fc:	9f 93       	push	r25
    51fe:	ef 93       	push	r30
    5200:	ff 93       	push	r31
old_AB <<= 2;                //remember previous state
    5202:	40 91 83 02 	lds	r20, 0x0283
    5206:	44 0f       	add	r20, r20
    5208:	44 0f       	add	r20, r20
    520a:	40 93 83 02 	sts	0x0283, r20
old_AB |= ( ENCA | ENCB<<1 );  //add current states
    520e:	59 b1       	in	r21, 0x09	; 9
    5210:	69 b1       	in	r22, 0x09	; 9
    5212:	63 fb       	bst	r22, 3
    5214:	88 27       	eor	r24, r24
    5216:	80 f9       	bld	r24, 0
    5218:	90 e0       	ldi	r25, 0x00	; 0
    521a:	88 0f       	add	r24, r24
    521c:	99 1f       	adc	r25, r25
    521e:	84 2b       	or	r24, r20
    5220:	52 fb       	bst	r21, 2
    5222:	22 27       	eor	r18, r18
    5224:	20 f9       	bld	r18, 0
    5226:	30 e0       	ldi	r19, 0x00	; 0
    5228:	82 2b       	or	r24, r18
    522a:	93 2b       	or	r25, r19
    522c:	80 93 83 02 	sts	0x0283, r24
//old_AB |=( ENCA>>1 | ENCB>>3 );  //add current states
TARGET_TEMPERATURE+=enc_LUT[( old_AB & 0x0f )];
    5230:	20 91 be 01 	lds	r18, 0x01BE
    5234:	30 91 bf 01 	lds	r19, 0x01BF
    5238:	8f 70       	andi	r24, 0x0F	; 15
    523a:	e8 2f       	mov	r30, r24
    523c:	f0 e0       	ldi	r31, 0x00	; 0
    523e:	ec 58       	subi	r30, 0x8C	; 140
    5240:	fe 4f       	sbci	r31, 0xFE	; 254
    5242:	80 81       	ld	r24, Z
    5244:	a9 01       	movw	r20, r18
    5246:	48 0f       	add	r20, r24
    5248:	51 1d       	adc	r21, r1
    524a:	87 fd       	sbrc	r24, 7
    524c:	5a 95       	dec	r21
    524e:	50 93 bf 01 	sts	0x01BF, r21
    5252:	40 93 be 01 	sts	0x01BE, r20
if(TARGET_TEMPERATURE > 1000 || TARGET_TEMPERATURE <0){ //if negative
    5256:	80 91 be 01 	lds	r24, 0x01BE
    525a:	90 91 bf 01 	lds	r25, 0x01BF
    525e:	89 3e       	cpi	r24, 0xE9	; 233
    5260:	93 40       	sbci	r25, 0x03	; 3
    5262:	a8 f4       	brcc	.+42     	; 0x528e <__vector_2+0xa8>
    5264:	80 91 be 01 	lds	r24, 0x01BE
    5268:	90 91 bf 01 	lds	r25, 0x01BF
	TARGET_TEMPERATURE=0;
}	
else if(TARGET_TEMPERATURE <= 1000){
    526c:	80 91 be 01 	lds	r24, 0x01BE
    5270:	90 91 bf 01 	lds	r25, 0x01BF
    5274:	89 3e       	cpi	r24, 0xE9	; 233
    5276:	93 40       	sbci	r25, 0x03	; 3
    5278:	70 f4       	brcc	.+28     	; 0x5296 <__vector_2+0xb0>
show_temp=1;
    527a:	81 e0       	ldi	r24, 0x01	; 1
    527c:	80 93 b7 01 	sts	0x01B7, r24
show_time=TEMP_SHOW_TIME;
    5280:	84 e0       	ldi	r24, 0x04	; 4
    5282:	80 93 b6 01 	sts	0x01B6, r24
save_time=TEMP_SAVE_TIME;
    5286:	8a e0       	ldi	r24, 0x0A	; 10
    5288:	80 93 b5 01 	sts	0x01B5, r24
    528c:	04 c0       	rjmp	.+8      	; 0x5296 <__vector_2+0xb0>
old_AB <<= 2;                //remember previous state
old_AB |= ( ENCA | ENCB<<1 );  //add current states
//old_AB |=( ENCA>>1 | ENCB>>3 );  //add current states
TARGET_TEMPERATURE+=enc_LUT[( old_AB & 0x0f )];
if(TARGET_TEMPERATURE > 1000 || TARGET_TEMPERATURE <0){ //if negative
	TARGET_TEMPERATURE=0;
    528e:	10 92 bf 01 	sts	0x01BF, r1
    5292:	10 92 be 01 	sts	0x01BE, r1
show_temp=1;
show_time=TEMP_SHOW_TIME;
save_time=TEMP_SAVE_TIME;
}

}
    5296:	ff 91       	pop	r31
    5298:	ef 91       	pop	r30
    529a:	9f 91       	pop	r25
    529c:	8f 91       	pop	r24
    529e:	6f 91       	pop	r22
    52a0:	5f 91       	pop	r21
    52a2:	4f 91       	pop	r20
    52a4:	3f 91       	pop	r19
    52a6:	2f 91       	pop	r18
    52a8:	0f 90       	pop	r0
    52aa:	0f be       	out	0x3f, r0	; 63
    52ac:	0f 90       	pop	r0
    52ae:	1f 90       	pop	r1
    52b0:	18 95       	reti

000052b2 <__vector_5>:
//clicker interrupt
ISR(PCINT2_vect){
    52b2:	1f 92       	push	r1
    52b4:	0f 92       	push	r0
    52b6:	0f b6       	in	r0, 0x3f	; 63
    52b8:	0f 92       	push	r0
    52ba:	11 24       	eor	r1, r1
    52bc:	2f 93       	push	r18
    52be:	3f 93       	push	r19
    52c0:	8f 93       	push	r24
    52c2:	9f 93       	push	r25
old_click <<= 1; 
    52c4:	20 91 82 02 	lds	r18, 0x0282
    52c8:	22 0f       	add	r18, r18
    52ca:	20 93 82 02 	sts	0x0282, r18
old_click |=  ENCCLK;  //add current state
    52ce:	39 b1       	in	r19, 0x09	; 9
    52d0:	31 fb       	bst	r19, 1
    52d2:	88 27       	eor	r24, r24
    52d4:	80 f9       	bld	r24, 0
    52d6:	82 2b       	or	r24, r18
    52d8:	80 93 82 02 	sts	0x0282, r24
	if(old_click&0x02){ //if pulled down
    52dc:	81 ff       	sbrs	r24, 1
    52de:	08 c0       	rjmp	.+16     	; 0x52f0 <__vector_5+0x3e>
		 //clicked
		 clicked=1;
    52e0:	81 e0       	ldi	r24, 0x01	; 1
    52e2:	80 93 b8 01 	sts	0x01B8, r24
		 show_temp=1;
    52e6:	80 93 b7 01 	sts	0x01B7, r24
		 show_time=TEMP_SHOW_TIME;
    52ea:	84 e0       	ldi	r24, 0x04	; 4
    52ec:	80 93 b6 01 	sts	0x01B6, r24
	}	          
    52f0:	9f 91       	pop	r25
    52f2:	8f 91       	pop	r24
    52f4:	3f 91       	pop	r19
    52f6:	2f 91       	pop	r18
    52f8:	0f 90       	pop	r0
    52fa:	0f be       	out	0x3f, r0	; 63
    52fc:	0f 90       	pop	r0
    52fe:	1f 90       	pop	r1
    5300:	18 95       	reti

00005302 <__subsf3>:
    5302:	50 58       	subi	r21, 0x80	; 128

00005304 <__addsf3>:
    5304:	bb 27       	eor	r27, r27
    5306:	aa 27       	eor	r26, r26
    5308:	0e d0       	rcall	.+28     	; 0x5326 <__addsf3x>
    530a:	75 c1       	rjmp	.+746    	; 0x55f6 <__fp_round>
    530c:	66 d1       	rcall	.+716    	; 0x55da <__fp_pscA>
    530e:	30 f0       	brcs	.+12     	; 0x531c <__addsf3+0x18>
    5310:	6b d1       	rcall	.+726    	; 0x55e8 <__fp_pscB>
    5312:	20 f0       	brcs	.+8      	; 0x531c <__addsf3+0x18>
    5314:	31 f4       	brne	.+12     	; 0x5322 <__addsf3+0x1e>
    5316:	9f 3f       	cpi	r25, 0xFF	; 255
    5318:	11 f4       	brne	.+4      	; 0x531e <__addsf3+0x1a>
    531a:	1e f4       	brtc	.+6      	; 0x5322 <__addsf3+0x1e>
    531c:	5b c1       	rjmp	.+694    	; 0x55d4 <__fp_nan>
    531e:	0e f4       	brtc	.+2      	; 0x5322 <__addsf3+0x1e>
    5320:	e0 95       	com	r30
    5322:	e7 fb       	bst	r30, 7
    5324:	51 c1       	rjmp	.+674    	; 0x55c8 <__fp_inf>

00005326 <__addsf3x>:
    5326:	e9 2f       	mov	r30, r25
    5328:	77 d1       	rcall	.+750    	; 0x5618 <__fp_split3>
    532a:	80 f3       	brcs	.-32     	; 0x530c <__addsf3+0x8>
    532c:	ba 17       	cp	r27, r26
    532e:	62 07       	cpc	r22, r18
    5330:	73 07       	cpc	r23, r19
    5332:	84 07       	cpc	r24, r20
    5334:	95 07       	cpc	r25, r21
    5336:	18 f0       	brcs	.+6      	; 0x533e <__addsf3x+0x18>
    5338:	71 f4       	brne	.+28     	; 0x5356 <__addsf3x+0x30>
    533a:	9e f5       	brtc	.+102    	; 0x53a2 <__addsf3x+0x7c>
    533c:	8f c1       	rjmp	.+798    	; 0x565c <__fp_zero>
    533e:	0e f4       	brtc	.+2      	; 0x5342 <__addsf3x+0x1c>
    5340:	e0 95       	com	r30
    5342:	0b 2e       	mov	r0, r27
    5344:	ba 2f       	mov	r27, r26
    5346:	a0 2d       	mov	r26, r0
    5348:	0b 01       	movw	r0, r22
    534a:	b9 01       	movw	r22, r18
    534c:	90 01       	movw	r18, r0
    534e:	0c 01       	movw	r0, r24
    5350:	ca 01       	movw	r24, r20
    5352:	a0 01       	movw	r20, r0
    5354:	11 24       	eor	r1, r1
    5356:	ff 27       	eor	r31, r31
    5358:	59 1b       	sub	r21, r25
    535a:	99 f0       	breq	.+38     	; 0x5382 <__addsf3x+0x5c>
    535c:	59 3f       	cpi	r21, 0xF9	; 249
    535e:	50 f4       	brcc	.+20     	; 0x5374 <__addsf3x+0x4e>
    5360:	50 3e       	cpi	r21, 0xE0	; 224
    5362:	68 f1       	brcs	.+90     	; 0x53be <__addsf3x+0x98>
    5364:	1a 16       	cp	r1, r26
    5366:	f0 40       	sbci	r31, 0x00	; 0
    5368:	a2 2f       	mov	r26, r18
    536a:	23 2f       	mov	r18, r19
    536c:	34 2f       	mov	r19, r20
    536e:	44 27       	eor	r20, r20
    5370:	58 5f       	subi	r21, 0xF8	; 248
    5372:	f3 cf       	rjmp	.-26     	; 0x535a <__addsf3x+0x34>
    5374:	46 95       	lsr	r20
    5376:	37 95       	ror	r19
    5378:	27 95       	ror	r18
    537a:	a7 95       	ror	r26
    537c:	f0 40       	sbci	r31, 0x00	; 0
    537e:	53 95       	inc	r21
    5380:	c9 f7       	brne	.-14     	; 0x5374 <__addsf3x+0x4e>
    5382:	7e f4       	brtc	.+30     	; 0x53a2 <__addsf3x+0x7c>
    5384:	1f 16       	cp	r1, r31
    5386:	ba 0b       	sbc	r27, r26
    5388:	62 0b       	sbc	r22, r18
    538a:	73 0b       	sbc	r23, r19
    538c:	84 0b       	sbc	r24, r20
    538e:	ba f0       	brmi	.+46     	; 0x53be <__addsf3x+0x98>
    5390:	91 50       	subi	r25, 0x01	; 1
    5392:	a1 f0       	breq	.+40     	; 0x53bc <__addsf3x+0x96>
    5394:	ff 0f       	add	r31, r31
    5396:	bb 1f       	adc	r27, r27
    5398:	66 1f       	adc	r22, r22
    539a:	77 1f       	adc	r23, r23
    539c:	88 1f       	adc	r24, r24
    539e:	c2 f7       	brpl	.-16     	; 0x5390 <__addsf3x+0x6a>
    53a0:	0e c0       	rjmp	.+28     	; 0x53be <__addsf3x+0x98>
    53a2:	ba 0f       	add	r27, r26
    53a4:	62 1f       	adc	r22, r18
    53a6:	73 1f       	adc	r23, r19
    53a8:	84 1f       	adc	r24, r20
    53aa:	48 f4       	brcc	.+18     	; 0x53be <__addsf3x+0x98>
    53ac:	87 95       	ror	r24
    53ae:	77 95       	ror	r23
    53b0:	67 95       	ror	r22
    53b2:	b7 95       	ror	r27
    53b4:	f7 95       	ror	r31
    53b6:	9e 3f       	cpi	r25, 0xFE	; 254
    53b8:	08 f0       	brcs	.+2      	; 0x53bc <__addsf3x+0x96>
    53ba:	b3 cf       	rjmp	.-154    	; 0x5322 <__addsf3+0x1e>
    53bc:	93 95       	inc	r25
    53be:	88 0f       	add	r24, r24
    53c0:	08 f0       	brcs	.+2      	; 0x53c4 <__addsf3x+0x9e>
    53c2:	99 27       	eor	r25, r25
    53c4:	ee 0f       	add	r30, r30
    53c6:	97 95       	ror	r25
    53c8:	87 95       	ror	r24
    53ca:	08 95       	ret

000053cc <__cmpsf2>:
    53cc:	d9 d0       	rcall	.+434    	; 0x5580 <__fp_cmp>
    53ce:	08 f4       	brcc	.+2      	; 0x53d2 <__cmpsf2+0x6>
    53d0:	81 e0       	ldi	r24, 0x01	; 1
    53d2:	08 95       	ret

000053d4 <__divsf3>:
    53d4:	0c d0       	rcall	.+24     	; 0x53ee <__divsf3x>
    53d6:	0f c1       	rjmp	.+542    	; 0x55f6 <__fp_round>
    53d8:	07 d1       	rcall	.+526    	; 0x55e8 <__fp_pscB>
    53da:	40 f0       	brcs	.+16     	; 0x53ec <__divsf3+0x18>
    53dc:	fe d0       	rcall	.+508    	; 0x55da <__fp_pscA>
    53de:	30 f0       	brcs	.+12     	; 0x53ec <__divsf3+0x18>
    53e0:	21 f4       	brne	.+8      	; 0x53ea <__divsf3+0x16>
    53e2:	5f 3f       	cpi	r21, 0xFF	; 255
    53e4:	19 f0       	breq	.+6      	; 0x53ec <__divsf3+0x18>
    53e6:	f0 c0       	rjmp	.+480    	; 0x55c8 <__fp_inf>
    53e8:	51 11       	cpse	r21, r1
    53ea:	39 c1       	rjmp	.+626    	; 0x565e <__fp_szero>
    53ec:	f3 c0       	rjmp	.+486    	; 0x55d4 <__fp_nan>

000053ee <__divsf3x>:
    53ee:	14 d1       	rcall	.+552    	; 0x5618 <__fp_split3>
    53f0:	98 f3       	brcs	.-26     	; 0x53d8 <__divsf3+0x4>

000053f2 <__divsf3_pse>:
    53f2:	99 23       	and	r25, r25
    53f4:	c9 f3       	breq	.-14     	; 0x53e8 <__divsf3+0x14>
    53f6:	55 23       	and	r21, r21
    53f8:	b1 f3       	breq	.-20     	; 0x53e6 <__divsf3+0x12>
    53fa:	95 1b       	sub	r25, r21
    53fc:	55 0b       	sbc	r21, r21
    53fe:	bb 27       	eor	r27, r27
    5400:	aa 27       	eor	r26, r26
    5402:	62 17       	cp	r22, r18
    5404:	73 07       	cpc	r23, r19
    5406:	84 07       	cpc	r24, r20
    5408:	38 f0       	brcs	.+14     	; 0x5418 <__divsf3_pse+0x26>
    540a:	9f 5f       	subi	r25, 0xFF	; 255
    540c:	5f 4f       	sbci	r21, 0xFF	; 255
    540e:	22 0f       	add	r18, r18
    5410:	33 1f       	adc	r19, r19
    5412:	44 1f       	adc	r20, r20
    5414:	aa 1f       	adc	r26, r26
    5416:	a9 f3       	breq	.-22     	; 0x5402 <__divsf3_pse+0x10>
    5418:	33 d0       	rcall	.+102    	; 0x5480 <__divsf3_pse+0x8e>
    541a:	0e 2e       	mov	r0, r30
    541c:	3a f0       	brmi	.+14     	; 0x542c <__divsf3_pse+0x3a>
    541e:	e0 e8       	ldi	r30, 0x80	; 128
    5420:	30 d0       	rcall	.+96     	; 0x5482 <__divsf3_pse+0x90>
    5422:	91 50       	subi	r25, 0x01	; 1
    5424:	50 40       	sbci	r21, 0x00	; 0
    5426:	e6 95       	lsr	r30
    5428:	00 1c       	adc	r0, r0
    542a:	ca f7       	brpl	.-14     	; 0x541e <__divsf3_pse+0x2c>
    542c:	29 d0       	rcall	.+82     	; 0x5480 <__divsf3_pse+0x8e>
    542e:	fe 2f       	mov	r31, r30
    5430:	27 d0       	rcall	.+78     	; 0x5480 <__divsf3_pse+0x8e>
    5432:	66 0f       	add	r22, r22
    5434:	77 1f       	adc	r23, r23
    5436:	88 1f       	adc	r24, r24
    5438:	bb 1f       	adc	r27, r27
    543a:	26 17       	cp	r18, r22
    543c:	37 07       	cpc	r19, r23
    543e:	48 07       	cpc	r20, r24
    5440:	ab 07       	cpc	r26, r27
    5442:	b0 e8       	ldi	r27, 0x80	; 128
    5444:	09 f0       	breq	.+2      	; 0x5448 <__divsf3_pse+0x56>
    5446:	bb 0b       	sbc	r27, r27
    5448:	80 2d       	mov	r24, r0
    544a:	bf 01       	movw	r22, r30
    544c:	ff 27       	eor	r31, r31
    544e:	93 58       	subi	r25, 0x83	; 131
    5450:	5f 4f       	sbci	r21, 0xFF	; 255
    5452:	2a f0       	brmi	.+10     	; 0x545e <__divsf3_pse+0x6c>
    5454:	9e 3f       	cpi	r25, 0xFE	; 254
    5456:	51 05       	cpc	r21, r1
    5458:	68 f0       	brcs	.+26     	; 0x5474 <__divsf3_pse+0x82>
    545a:	b6 c0       	rjmp	.+364    	; 0x55c8 <__fp_inf>
    545c:	00 c1       	rjmp	.+512    	; 0x565e <__fp_szero>
    545e:	5f 3f       	cpi	r21, 0xFF	; 255
    5460:	ec f3       	brlt	.-6      	; 0x545c <__divsf3_pse+0x6a>
    5462:	98 3e       	cpi	r25, 0xE8	; 232
    5464:	dc f3       	brlt	.-10     	; 0x545c <__divsf3_pse+0x6a>
    5466:	86 95       	lsr	r24
    5468:	77 95       	ror	r23
    546a:	67 95       	ror	r22
    546c:	b7 95       	ror	r27
    546e:	f7 95       	ror	r31
    5470:	9f 5f       	subi	r25, 0xFF	; 255
    5472:	c9 f7       	brne	.-14     	; 0x5466 <__divsf3_pse+0x74>
    5474:	88 0f       	add	r24, r24
    5476:	91 1d       	adc	r25, r1
    5478:	96 95       	lsr	r25
    547a:	87 95       	ror	r24
    547c:	97 f9       	bld	r25, 7
    547e:	08 95       	ret
    5480:	e1 e0       	ldi	r30, 0x01	; 1
    5482:	66 0f       	add	r22, r22
    5484:	77 1f       	adc	r23, r23
    5486:	88 1f       	adc	r24, r24
    5488:	bb 1f       	adc	r27, r27
    548a:	62 17       	cp	r22, r18
    548c:	73 07       	cpc	r23, r19
    548e:	84 07       	cpc	r24, r20
    5490:	ba 07       	cpc	r27, r26
    5492:	20 f0       	brcs	.+8      	; 0x549c <__divsf3_pse+0xaa>
    5494:	62 1b       	sub	r22, r18
    5496:	73 0b       	sbc	r23, r19
    5498:	84 0b       	sbc	r24, r20
    549a:	ba 0b       	sbc	r27, r26
    549c:	ee 1f       	adc	r30, r30
    549e:	88 f7       	brcc	.-30     	; 0x5482 <__divsf3_pse+0x90>
    54a0:	e0 95       	com	r30
    54a2:	08 95       	ret

000054a4 <__fixsfsi>:
    54a4:	04 d0       	rcall	.+8      	; 0x54ae <__fixunssfsi>
    54a6:	68 94       	set
    54a8:	b1 11       	cpse	r27, r1
    54aa:	d9 c0       	rjmp	.+434    	; 0x565e <__fp_szero>
    54ac:	08 95       	ret

000054ae <__fixunssfsi>:
    54ae:	bc d0       	rcall	.+376    	; 0x5628 <__fp_splitA>
    54b0:	88 f0       	brcs	.+34     	; 0x54d4 <__fixunssfsi+0x26>
    54b2:	9f 57       	subi	r25, 0x7F	; 127
    54b4:	90 f0       	brcs	.+36     	; 0x54da <__fixunssfsi+0x2c>
    54b6:	b9 2f       	mov	r27, r25
    54b8:	99 27       	eor	r25, r25
    54ba:	b7 51       	subi	r27, 0x17	; 23
    54bc:	a0 f0       	brcs	.+40     	; 0x54e6 <__fixunssfsi+0x38>
    54be:	d1 f0       	breq	.+52     	; 0x54f4 <__fixunssfsi+0x46>
    54c0:	66 0f       	add	r22, r22
    54c2:	77 1f       	adc	r23, r23
    54c4:	88 1f       	adc	r24, r24
    54c6:	99 1f       	adc	r25, r25
    54c8:	1a f0       	brmi	.+6      	; 0x54d0 <__fixunssfsi+0x22>
    54ca:	ba 95       	dec	r27
    54cc:	c9 f7       	brne	.-14     	; 0x54c0 <__fixunssfsi+0x12>
    54ce:	12 c0       	rjmp	.+36     	; 0x54f4 <__fixunssfsi+0x46>
    54d0:	b1 30       	cpi	r27, 0x01	; 1
    54d2:	81 f0       	breq	.+32     	; 0x54f4 <__fixunssfsi+0x46>
    54d4:	c3 d0       	rcall	.+390    	; 0x565c <__fp_zero>
    54d6:	b1 e0       	ldi	r27, 0x01	; 1
    54d8:	08 95       	ret
    54da:	c0 c0       	rjmp	.+384    	; 0x565c <__fp_zero>
    54dc:	67 2f       	mov	r22, r23
    54de:	78 2f       	mov	r23, r24
    54e0:	88 27       	eor	r24, r24
    54e2:	b8 5f       	subi	r27, 0xF8	; 248
    54e4:	39 f0       	breq	.+14     	; 0x54f4 <__fixunssfsi+0x46>
    54e6:	b9 3f       	cpi	r27, 0xF9	; 249
    54e8:	cc f3       	brlt	.-14     	; 0x54dc <__fixunssfsi+0x2e>
    54ea:	86 95       	lsr	r24
    54ec:	77 95       	ror	r23
    54ee:	67 95       	ror	r22
    54f0:	b3 95       	inc	r27
    54f2:	d9 f7       	brne	.-10     	; 0x54ea <__fixunssfsi+0x3c>
    54f4:	3e f4       	brtc	.+14     	; 0x5504 <__fixunssfsi+0x56>
    54f6:	90 95       	com	r25
    54f8:	80 95       	com	r24
    54fa:	70 95       	com	r23
    54fc:	61 95       	neg	r22
    54fe:	7f 4f       	sbci	r23, 0xFF	; 255
    5500:	8f 4f       	sbci	r24, 0xFF	; 255
    5502:	9f 4f       	sbci	r25, 0xFF	; 255
    5504:	08 95       	ret

00005506 <__floatunsisf>:
    5506:	e8 94       	clt
    5508:	09 c0       	rjmp	.+18     	; 0x551c <__floatsisf+0x12>

0000550a <__floatsisf>:
    550a:	97 fb       	bst	r25, 7
    550c:	3e f4       	brtc	.+14     	; 0x551c <__floatsisf+0x12>
    550e:	90 95       	com	r25
    5510:	80 95       	com	r24
    5512:	70 95       	com	r23
    5514:	61 95       	neg	r22
    5516:	7f 4f       	sbci	r23, 0xFF	; 255
    5518:	8f 4f       	sbci	r24, 0xFF	; 255
    551a:	9f 4f       	sbci	r25, 0xFF	; 255
    551c:	99 23       	and	r25, r25
    551e:	a9 f0       	breq	.+42     	; 0x554a <__floatsisf+0x40>
    5520:	f9 2f       	mov	r31, r25
    5522:	96 e9       	ldi	r25, 0x96	; 150
    5524:	bb 27       	eor	r27, r27
    5526:	93 95       	inc	r25
    5528:	f6 95       	lsr	r31
    552a:	87 95       	ror	r24
    552c:	77 95       	ror	r23
    552e:	67 95       	ror	r22
    5530:	b7 95       	ror	r27
    5532:	f1 11       	cpse	r31, r1
    5534:	f8 cf       	rjmp	.-16     	; 0x5526 <__floatsisf+0x1c>
    5536:	fa f4       	brpl	.+62     	; 0x5576 <__floatsisf+0x6c>
    5538:	bb 0f       	add	r27, r27
    553a:	11 f4       	brne	.+4      	; 0x5540 <__floatsisf+0x36>
    553c:	60 ff       	sbrs	r22, 0
    553e:	1b c0       	rjmp	.+54     	; 0x5576 <__floatsisf+0x6c>
    5540:	6f 5f       	subi	r22, 0xFF	; 255
    5542:	7f 4f       	sbci	r23, 0xFF	; 255
    5544:	8f 4f       	sbci	r24, 0xFF	; 255
    5546:	9f 4f       	sbci	r25, 0xFF	; 255
    5548:	16 c0       	rjmp	.+44     	; 0x5576 <__floatsisf+0x6c>
    554a:	88 23       	and	r24, r24
    554c:	11 f0       	breq	.+4      	; 0x5552 <__floatsisf+0x48>
    554e:	96 e9       	ldi	r25, 0x96	; 150
    5550:	11 c0       	rjmp	.+34     	; 0x5574 <__floatsisf+0x6a>
    5552:	77 23       	and	r23, r23
    5554:	21 f0       	breq	.+8      	; 0x555e <__floatsisf+0x54>
    5556:	9e e8       	ldi	r25, 0x8E	; 142
    5558:	87 2f       	mov	r24, r23
    555a:	76 2f       	mov	r23, r22
    555c:	05 c0       	rjmp	.+10     	; 0x5568 <__floatsisf+0x5e>
    555e:	66 23       	and	r22, r22
    5560:	71 f0       	breq	.+28     	; 0x557e <__floatsisf+0x74>
    5562:	96 e8       	ldi	r25, 0x86	; 134
    5564:	86 2f       	mov	r24, r22
    5566:	70 e0       	ldi	r23, 0x00	; 0
    5568:	60 e0       	ldi	r22, 0x00	; 0
    556a:	2a f0       	brmi	.+10     	; 0x5576 <__floatsisf+0x6c>
    556c:	9a 95       	dec	r25
    556e:	66 0f       	add	r22, r22
    5570:	77 1f       	adc	r23, r23
    5572:	88 1f       	adc	r24, r24
    5574:	da f7       	brpl	.-10     	; 0x556c <__floatsisf+0x62>
    5576:	88 0f       	add	r24, r24
    5578:	96 95       	lsr	r25
    557a:	87 95       	ror	r24
    557c:	97 f9       	bld	r25, 7
    557e:	08 95       	ret

00005580 <__fp_cmp>:
    5580:	99 0f       	add	r25, r25
    5582:	00 08       	sbc	r0, r0
    5584:	55 0f       	add	r21, r21
    5586:	aa 0b       	sbc	r26, r26
    5588:	e0 e8       	ldi	r30, 0x80	; 128
    558a:	fe ef       	ldi	r31, 0xFE	; 254
    558c:	16 16       	cp	r1, r22
    558e:	17 06       	cpc	r1, r23
    5590:	e8 07       	cpc	r30, r24
    5592:	f9 07       	cpc	r31, r25
    5594:	c0 f0       	brcs	.+48     	; 0x55c6 <__fp_cmp+0x46>
    5596:	12 16       	cp	r1, r18
    5598:	13 06       	cpc	r1, r19
    559a:	e4 07       	cpc	r30, r20
    559c:	f5 07       	cpc	r31, r21
    559e:	98 f0       	brcs	.+38     	; 0x55c6 <__fp_cmp+0x46>
    55a0:	62 1b       	sub	r22, r18
    55a2:	73 0b       	sbc	r23, r19
    55a4:	84 0b       	sbc	r24, r20
    55a6:	95 0b       	sbc	r25, r21
    55a8:	39 f4       	brne	.+14     	; 0x55b8 <__fp_cmp+0x38>
    55aa:	0a 26       	eor	r0, r26
    55ac:	61 f0       	breq	.+24     	; 0x55c6 <__fp_cmp+0x46>
    55ae:	23 2b       	or	r18, r19
    55b0:	24 2b       	or	r18, r20
    55b2:	25 2b       	or	r18, r21
    55b4:	21 f4       	brne	.+8      	; 0x55be <__fp_cmp+0x3e>
    55b6:	08 95       	ret
    55b8:	0a 26       	eor	r0, r26
    55ba:	09 f4       	brne	.+2      	; 0x55be <__fp_cmp+0x3e>
    55bc:	a1 40       	sbci	r26, 0x01	; 1
    55be:	a6 95       	lsr	r26
    55c0:	8f ef       	ldi	r24, 0xFF	; 255
    55c2:	81 1d       	adc	r24, r1
    55c4:	81 1d       	adc	r24, r1
    55c6:	08 95       	ret

000055c8 <__fp_inf>:
    55c8:	97 f9       	bld	r25, 7
    55ca:	9f 67       	ori	r25, 0x7F	; 127
    55cc:	80 e8       	ldi	r24, 0x80	; 128
    55ce:	70 e0       	ldi	r23, 0x00	; 0
    55d0:	60 e0       	ldi	r22, 0x00	; 0
    55d2:	08 95       	ret

000055d4 <__fp_nan>:
    55d4:	9f ef       	ldi	r25, 0xFF	; 255
    55d6:	80 ec       	ldi	r24, 0xC0	; 192
    55d8:	08 95       	ret

000055da <__fp_pscA>:
    55da:	00 24       	eor	r0, r0
    55dc:	0a 94       	dec	r0
    55de:	16 16       	cp	r1, r22
    55e0:	17 06       	cpc	r1, r23
    55e2:	18 06       	cpc	r1, r24
    55e4:	09 06       	cpc	r0, r25
    55e6:	08 95       	ret

000055e8 <__fp_pscB>:
    55e8:	00 24       	eor	r0, r0
    55ea:	0a 94       	dec	r0
    55ec:	12 16       	cp	r1, r18
    55ee:	13 06       	cpc	r1, r19
    55f0:	14 06       	cpc	r1, r20
    55f2:	05 06       	cpc	r0, r21
    55f4:	08 95       	ret

000055f6 <__fp_round>:
    55f6:	09 2e       	mov	r0, r25
    55f8:	03 94       	inc	r0
    55fa:	00 0c       	add	r0, r0
    55fc:	11 f4       	brne	.+4      	; 0x5602 <__fp_round+0xc>
    55fe:	88 23       	and	r24, r24
    5600:	52 f0       	brmi	.+20     	; 0x5616 <__fp_round+0x20>
    5602:	bb 0f       	add	r27, r27
    5604:	40 f4       	brcc	.+16     	; 0x5616 <__fp_round+0x20>
    5606:	bf 2b       	or	r27, r31
    5608:	11 f4       	brne	.+4      	; 0x560e <__fp_round+0x18>
    560a:	60 ff       	sbrs	r22, 0
    560c:	04 c0       	rjmp	.+8      	; 0x5616 <__fp_round+0x20>
    560e:	6f 5f       	subi	r22, 0xFF	; 255
    5610:	7f 4f       	sbci	r23, 0xFF	; 255
    5612:	8f 4f       	sbci	r24, 0xFF	; 255
    5614:	9f 4f       	sbci	r25, 0xFF	; 255
    5616:	08 95       	ret

00005618 <__fp_split3>:
    5618:	57 fd       	sbrc	r21, 7
    561a:	90 58       	subi	r25, 0x80	; 128
    561c:	44 0f       	add	r20, r20
    561e:	55 1f       	adc	r21, r21
    5620:	59 f0       	breq	.+22     	; 0x5638 <__fp_splitA+0x10>
    5622:	5f 3f       	cpi	r21, 0xFF	; 255
    5624:	71 f0       	breq	.+28     	; 0x5642 <__fp_splitA+0x1a>
    5626:	47 95       	ror	r20

00005628 <__fp_splitA>:
    5628:	88 0f       	add	r24, r24
    562a:	97 fb       	bst	r25, 7
    562c:	99 1f       	adc	r25, r25
    562e:	61 f0       	breq	.+24     	; 0x5648 <__fp_splitA+0x20>
    5630:	9f 3f       	cpi	r25, 0xFF	; 255
    5632:	79 f0       	breq	.+30     	; 0x5652 <__fp_splitA+0x2a>
    5634:	87 95       	ror	r24
    5636:	08 95       	ret
    5638:	12 16       	cp	r1, r18
    563a:	13 06       	cpc	r1, r19
    563c:	14 06       	cpc	r1, r20
    563e:	55 1f       	adc	r21, r21
    5640:	f2 cf       	rjmp	.-28     	; 0x5626 <__fp_split3+0xe>
    5642:	46 95       	lsr	r20
    5644:	f1 df       	rcall	.-30     	; 0x5628 <__fp_splitA>
    5646:	08 c0       	rjmp	.+16     	; 0x5658 <__fp_splitA+0x30>
    5648:	16 16       	cp	r1, r22
    564a:	17 06       	cpc	r1, r23
    564c:	18 06       	cpc	r1, r24
    564e:	99 1f       	adc	r25, r25
    5650:	f1 cf       	rjmp	.-30     	; 0x5634 <__fp_splitA+0xc>
    5652:	86 95       	lsr	r24
    5654:	71 05       	cpc	r23, r1
    5656:	61 05       	cpc	r22, r1
    5658:	08 94       	sec
    565a:	08 95       	ret

0000565c <__fp_zero>:
    565c:	e8 94       	clt

0000565e <__fp_szero>:
    565e:	bb 27       	eor	r27, r27
    5660:	66 27       	eor	r22, r22
    5662:	77 27       	eor	r23, r23
    5664:	cb 01       	movw	r24, r22
    5666:	97 f9       	bld	r25, 7
    5668:	08 95       	ret

0000566a <__gesf2>:
    566a:	8a df       	rcall	.-236    	; 0x5580 <__fp_cmp>
    566c:	08 f4       	brcc	.+2      	; 0x5670 <__gesf2+0x6>
    566e:	8f ef       	ldi	r24, 0xFF	; 255
    5670:	08 95       	ret

00005672 <__mulsf3>:
    5672:	0b d0       	rcall	.+22     	; 0x568a <__mulsf3x>
    5674:	c0 cf       	rjmp	.-128    	; 0x55f6 <__fp_round>
    5676:	b1 df       	rcall	.-158    	; 0x55da <__fp_pscA>
    5678:	28 f0       	brcs	.+10     	; 0x5684 <__mulsf3+0x12>
    567a:	b6 df       	rcall	.-148    	; 0x55e8 <__fp_pscB>
    567c:	18 f0       	brcs	.+6      	; 0x5684 <__mulsf3+0x12>
    567e:	95 23       	and	r25, r21
    5680:	09 f0       	breq	.+2      	; 0x5684 <__mulsf3+0x12>
    5682:	a2 cf       	rjmp	.-188    	; 0x55c8 <__fp_inf>
    5684:	a7 cf       	rjmp	.-178    	; 0x55d4 <__fp_nan>
    5686:	11 24       	eor	r1, r1
    5688:	ea cf       	rjmp	.-44     	; 0x565e <__fp_szero>

0000568a <__mulsf3x>:
    568a:	c6 df       	rcall	.-116    	; 0x5618 <__fp_split3>
    568c:	a0 f3       	brcs	.-24     	; 0x5676 <__mulsf3+0x4>

0000568e <__mulsf3_pse>:
    568e:	95 9f       	mul	r25, r21
    5690:	d1 f3       	breq	.-12     	; 0x5686 <__mulsf3+0x14>
    5692:	95 0f       	add	r25, r21
    5694:	50 e0       	ldi	r21, 0x00	; 0
    5696:	55 1f       	adc	r21, r21
    5698:	62 9f       	mul	r22, r18
    569a:	f0 01       	movw	r30, r0
    569c:	72 9f       	mul	r23, r18
    569e:	bb 27       	eor	r27, r27
    56a0:	f0 0d       	add	r31, r0
    56a2:	b1 1d       	adc	r27, r1
    56a4:	63 9f       	mul	r22, r19
    56a6:	aa 27       	eor	r26, r26
    56a8:	f0 0d       	add	r31, r0
    56aa:	b1 1d       	adc	r27, r1
    56ac:	aa 1f       	adc	r26, r26
    56ae:	64 9f       	mul	r22, r20
    56b0:	66 27       	eor	r22, r22
    56b2:	b0 0d       	add	r27, r0
    56b4:	a1 1d       	adc	r26, r1
    56b6:	66 1f       	adc	r22, r22
    56b8:	82 9f       	mul	r24, r18
    56ba:	22 27       	eor	r18, r18
    56bc:	b0 0d       	add	r27, r0
    56be:	a1 1d       	adc	r26, r1
    56c0:	62 1f       	adc	r22, r18
    56c2:	73 9f       	mul	r23, r19
    56c4:	b0 0d       	add	r27, r0
    56c6:	a1 1d       	adc	r26, r1
    56c8:	62 1f       	adc	r22, r18
    56ca:	83 9f       	mul	r24, r19
    56cc:	a0 0d       	add	r26, r0
    56ce:	61 1d       	adc	r22, r1
    56d0:	22 1f       	adc	r18, r18
    56d2:	74 9f       	mul	r23, r20
    56d4:	33 27       	eor	r19, r19
    56d6:	a0 0d       	add	r26, r0
    56d8:	61 1d       	adc	r22, r1
    56da:	23 1f       	adc	r18, r19
    56dc:	84 9f       	mul	r24, r20
    56de:	60 0d       	add	r22, r0
    56e0:	21 1d       	adc	r18, r1
    56e2:	82 2f       	mov	r24, r18
    56e4:	76 2f       	mov	r23, r22
    56e6:	6a 2f       	mov	r22, r26
    56e8:	11 24       	eor	r1, r1
    56ea:	9f 57       	subi	r25, 0x7F	; 127
    56ec:	50 40       	sbci	r21, 0x00	; 0
    56ee:	8a f0       	brmi	.+34     	; 0x5712 <__mulsf3_pse+0x84>
    56f0:	e1 f0       	breq	.+56     	; 0x572a <__mulsf3_pse+0x9c>
    56f2:	88 23       	and	r24, r24
    56f4:	4a f0       	brmi	.+18     	; 0x5708 <__mulsf3_pse+0x7a>
    56f6:	ee 0f       	add	r30, r30
    56f8:	ff 1f       	adc	r31, r31
    56fa:	bb 1f       	adc	r27, r27
    56fc:	66 1f       	adc	r22, r22
    56fe:	77 1f       	adc	r23, r23
    5700:	88 1f       	adc	r24, r24
    5702:	91 50       	subi	r25, 0x01	; 1
    5704:	50 40       	sbci	r21, 0x00	; 0
    5706:	a9 f7       	brne	.-22     	; 0x56f2 <__mulsf3_pse+0x64>
    5708:	9e 3f       	cpi	r25, 0xFE	; 254
    570a:	51 05       	cpc	r21, r1
    570c:	70 f0       	brcs	.+28     	; 0x572a <__mulsf3_pse+0x9c>
    570e:	5c cf       	rjmp	.-328    	; 0x55c8 <__fp_inf>
    5710:	a6 cf       	rjmp	.-180    	; 0x565e <__fp_szero>
    5712:	5f 3f       	cpi	r21, 0xFF	; 255
    5714:	ec f3       	brlt	.-6      	; 0x5710 <__mulsf3_pse+0x82>
    5716:	98 3e       	cpi	r25, 0xE8	; 232
    5718:	dc f3       	brlt	.-10     	; 0x5710 <__mulsf3_pse+0x82>
    571a:	86 95       	lsr	r24
    571c:	77 95       	ror	r23
    571e:	67 95       	ror	r22
    5720:	b7 95       	ror	r27
    5722:	f7 95       	ror	r31
    5724:	e7 95       	ror	r30
    5726:	9f 5f       	subi	r25, 0xFF	; 255
    5728:	c1 f7       	brne	.-16     	; 0x571a <__mulsf3_pse+0x8c>
    572a:	fe 2b       	or	r31, r30
    572c:	88 0f       	add	r24, r24
    572e:	91 1d       	adc	r25, r1
    5730:	96 95       	lsr	r25
    5732:	87 95       	ror	r24
    5734:	97 f9       	bld	r25, 7
    5736:	08 95       	ret

00005738 <pow>:
    5738:	fa 01       	movw	r30, r20
    573a:	ee 0f       	add	r30, r30
    573c:	ff 1f       	adc	r31, r31
    573e:	30 96       	adiw	r30, 0x00	; 0
    5740:	21 05       	cpc	r18, r1
    5742:	31 05       	cpc	r19, r1
    5744:	99 f1       	breq	.+102    	; 0x57ac <pow+0x74>
    5746:	61 15       	cp	r22, r1
    5748:	71 05       	cpc	r23, r1
    574a:	61 f4       	brne	.+24     	; 0x5764 <pow+0x2c>
    574c:	80 38       	cpi	r24, 0x80	; 128
    574e:	bf e3       	ldi	r27, 0x3F	; 63
    5750:	9b 07       	cpc	r25, r27
    5752:	49 f1       	breq	.+82     	; 0x57a6 <pow+0x6e>
    5754:	68 94       	set
    5756:	90 38       	cpi	r25, 0x80	; 128
    5758:	81 05       	cpc	r24, r1
    575a:	61 f0       	breq	.+24     	; 0x5774 <pow+0x3c>
    575c:	80 38       	cpi	r24, 0x80	; 128
    575e:	bf ef       	ldi	r27, 0xFF	; 255
    5760:	9b 07       	cpc	r25, r27
    5762:	41 f0       	breq	.+16     	; 0x5774 <pow+0x3c>
    5764:	99 23       	and	r25, r25
    5766:	42 f5       	brpl	.+80     	; 0x57b8 <pow+0x80>
    5768:	ff 3f       	cpi	r31, 0xFF	; 255
    576a:	e1 05       	cpc	r30, r1
    576c:	31 05       	cpc	r19, r1
    576e:	21 05       	cpc	r18, r1
    5770:	11 f1       	breq	.+68     	; 0x57b6 <pow+0x7e>
    5772:	e8 94       	clt
    5774:	08 94       	sec
    5776:	e7 95       	ror	r30
    5778:	d9 01       	movw	r26, r18
    577a:	aa 23       	and	r26, r26
    577c:	29 f4       	brne	.+10     	; 0x5788 <pow+0x50>
    577e:	ab 2f       	mov	r26, r27
    5780:	be 2f       	mov	r27, r30
    5782:	f8 5f       	subi	r31, 0xF8	; 248
    5784:	d0 f3       	brcs	.-12     	; 0x577a <pow+0x42>
    5786:	10 c0       	rjmp	.+32     	; 0x57a8 <pow+0x70>
    5788:	ff 5f       	subi	r31, 0xFF	; 255
    578a:	70 f4       	brcc	.+28     	; 0x57a8 <pow+0x70>
    578c:	a6 95       	lsr	r26
    578e:	e0 f7       	brcc	.-8      	; 0x5788 <pow+0x50>
    5790:	f7 39       	cpi	r31, 0x97	; 151
    5792:	50 f0       	brcs	.+20     	; 0x57a8 <pow+0x70>
    5794:	19 f0       	breq	.+6      	; 0x579c <pow+0x64>
    5796:	ff 3a       	cpi	r31, 0xAF	; 175
    5798:	38 f4       	brcc	.+14     	; 0x57a8 <pow+0x70>
    579a:	9f 77       	andi	r25, 0x7F	; 127
    579c:	9f 93       	push	r25
    579e:	0c d0       	rcall	.+24     	; 0x57b8 <pow+0x80>
    57a0:	0f 90       	pop	r0
    57a2:	07 fc       	sbrc	r0, 7
    57a4:	90 58       	subi	r25, 0x80	; 128
    57a6:	08 95       	ret
    57a8:	3e f0       	brts	.+14     	; 0x57b8 <pow+0x80>
    57aa:	14 cf       	rjmp	.-472    	; 0x55d4 <__fp_nan>
    57ac:	60 e0       	ldi	r22, 0x00	; 0
    57ae:	70 e0       	ldi	r23, 0x00	; 0
    57b0:	80 e8       	ldi	r24, 0x80	; 128
    57b2:	9f e3       	ldi	r25, 0x3F	; 63
    57b4:	08 95       	ret
    57b6:	4f e7       	ldi	r20, 0x7F	; 127
    57b8:	9f 77       	andi	r25, 0x7F	; 127
    57ba:	5f 93       	push	r21
    57bc:	4f 93       	push	r20
    57be:	3f 93       	push	r19
    57c0:	2f 93       	push	r18
    57c2:	e7 d0       	rcall	.+462    	; 0x5992 <log>
    57c4:	2f 91       	pop	r18
    57c6:	3f 91       	pop	r19
    57c8:	4f 91       	pop	r20
    57ca:	5f 91       	pop	r21
    57cc:	52 df       	rcall	.-348    	; 0x5672 <__mulsf3>
    57ce:	25 c0       	rjmp	.+74     	; 0x581a <exp>

000057d0 <round>:
    57d0:	2b df       	rcall	.-426    	; 0x5628 <__fp_splitA>
    57d2:	e0 f0       	brcs	.+56     	; 0x580c <round+0x3c>
    57d4:	9e 37       	cpi	r25, 0x7E	; 126
    57d6:	d8 f0       	brcs	.+54     	; 0x580e <round+0x3e>
    57d8:	96 39       	cpi	r25, 0x96	; 150
    57da:	b8 f4       	brcc	.+46     	; 0x580a <round+0x3a>
    57dc:	9e 38       	cpi	r25, 0x8E	; 142
    57de:	48 f4       	brcc	.+18     	; 0x57f2 <round+0x22>
    57e0:	67 2f       	mov	r22, r23
    57e2:	78 2f       	mov	r23, r24
    57e4:	88 27       	eor	r24, r24
    57e6:	98 5f       	subi	r25, 0xF8	; 248
    57e8:	f9 cf       	rjmp	.-14     	; 0x57dc <round+0xc>
    57ea:	86 95       	lsr	r24
    57ec:	77 95       	ror	r23
    57ee:	67 95       	ror	r22
    57f0:	93 95       	inc	r25
    57f2:	95 39       	cpi	r25, 0x95	; 149
    57f4:	d0 f3       	brcs	.-12     	; 0x57ea <round+0x1a>
    57f6:	b6 2f       	mov	r27, r22
    57f8:	b1 70       	andi	r27, 0x01	; 1
    57fa:	6b 0f       	add	r22, r27
    57fc:	71 1d       	adc	r23, r1
    57fe:	81 1d       	adc	r24, r1
    5800:	20 f4       	brcc	.+8      	; 0x580a <round+0x3a>
    5802:	87 95       	ror	r24
    5804:	77 95       	ror	r23
    5806:	67 95       	ror	r22
    5808:	93 95       	inc	r25
    580a:	33 c0       	rjmp	.+102    	; 0x5872 <__fp_mintl>
    580c:	4d c0       	rjmp	.+154    	; 0x58a8 <__fp_mpack>
    580e:	27 cf       	rjmp	.-434    	; 0x565e <__fp_szero>
    5810:	19 f4       	brne	.+6      	; 0x5818 <round+0x48>
    5812:	0e f0       	brts	.+2      	; 0x5816 <round+0x46>
    5814:	d9 ce       	rjmp	.-590    	; 0x55c8 <__fp_inf>
    5816:	22 cf       	rjmp	.-444    	; 0x565c <__fp_zero>
    5818:	dd ce       	rjmp	.-582    	; 0x55d4 <__fp_nan>

0000581a <exp>:
    581a:	06 df       	rcall	.-500    	; 0x5628 <__fp_splitA>
    581c:	c8 f3       	brcs	.-14     	; 0x5810 <round+0x40>
    581e:	96 38       	cpi	r25, 0x86	; 134
    5820:	c0 f7       	brcc	.-16     	; 0x5812 <round+0x42>
    5822:	07 f8       	bld	r0, 7
    5824:	0f 92       	push	r0
    5826:	e8 94       	clt
    5828:	2b e3       	ldi	r18, 0x3B	; 59
    582a:	3a ea       	ldi	r19, 0xAA	; 170
    582c:	48 eb       	ldi	r20, 0xB8	; 184
    582e:	5f e7       	ldi	r21, 0x7F	; 127
    5830:	2e df       	rcall	.-420    	; 0x568e <__mulsf3_pse>
    5832:	0f 92       	push	r0
    5834:	0f 92       	push	r0
    5836:	0f 92       	push	r0
    5838:	4d b7       	in	r20, 0x3d	; 61
    583a:	5e b7       	in	r21, 0x3e	; 62
    583c:	0f 92       	push	r0
    583e:	e9 d0       	rcall	.+466    	; 0x5a12 <modf>
    5840:	e8 e6       	ldi	r30, 0x68	; 104
    5842:	f0 e0       	ldi	r31, 0x00	; 0
    5844:	3f d0       	rcall	.+126    	; 0x58c4 <__fp_powser>
    5846:	4f 91       	pop	r20
    5848:	5f 91       	pop	r21
    584a:	ef 91       	pop	r30
    584c:	ff 91       	pop	r31
    584e:	e5 95       	asr	r30
    5850:	ee 1f       	adc	r30, r30
    5852:	ff 1f       	adc	r31, r31
    5854:	49 f0       	breq	.+18     	; 0x5868 <exp+0x4e>
    5856:	fe 57       	subi	r31, 0x7E	; 126
    5858:	e0 68       	ori	r30, 0x80	; 128
    585a:	44 27       	eor	r20, r20
    585c:	ee 0f       	add	r30, r30
    585e:	44 1f       	adc	r20, r20
    5860:	fa 95       	dec	r31
    5862:	e1 f7       	brne	.-8      	; 0x585c <exp+0x42>
    5864:	41 95       	neg	r20
    5866:	55 0b       	sbc	r21, r21
    5868:	5b d0       	rcall	.+182    	; 0x5920 <ldexp>
    586a:	0f 90       	pop	r0
    586c:	07 fe       	sbrs	r0, 7
    586e:	4f c0       	rjmp	.+158    	; 0x590e <inverse>
    5870:	08 95       	ret

00005872 <__fp_mintl>:
    5872:	88 23       	and	r24, r24
    5874:	71 f4       	brne	.+28     	; 0x5892 <__fp_mintl+0x20>
    5876:	77 23       	and	r23, r23
    5878:	21 f0       	breq	.+8      	; 0x5882 <__fp_mintl+0x10>
    587a:	98 50       	subi	r25, 0x08	; 8
    587c:	87 2b       	or	r24, r23
    587e:	76 2f       	mov	r23, r22
    5880:	07 c0       	rjmp	.+14     	; 0x5890 <__fp_mintl+0x1e>
    5882:	66 23       	and	r22, r22
    5884:	11 f4       	brne	.+4      	; 0x588a <__fp_mintl+0x18>
    5886:	99 27       	eor	r25, r25
    5888:	0d c0       	rjmp	.+26     	; 0x58a4 <__fp_mintl+0x32>
    588a:	90 51       	subi	r25, 0x10	; 16
    588c:	86 2b       	or	r24, r22
    588e:	70 e0       	ldi	r23, 0x00	; 0
    5890:	60 e0       	ldi	r22, 0x00	; 0
    5892:	2a f0       	brmi	.+10     	; 0x589e <__fp_mintl+0x2c>
    5894:	9a 95       	dec	r25
    5896:	66 0f       	add	r22, r22
    5898:	77 1f       	adc	r23, r23
    589a:	88 1f       	adc	r24, r24
    589c:	da f7       	brpl	.-10     	; 0x5894 <__fp_mintl+0x22>
    589e:	88 0f       	add	r24, r24
    58a0:	96 95       	lsr	r25
    58a2:	87 95       	ror	r24
    58a4:	97 f9       	bld	r25, 7
    58a6:	08 95       	ret

000058a8 <__fp_mpack>:
    58a8:	9f 3f       	cpi	r25, 0xFF	; 255
    58aa:	31 f0       	breq	.+12     	; 0x58b8 <__fp_mpack_finite+0xc>

000058ac <__fp_mpack_finite>:
    58ac:	91 50       	subi	r25, 0x01	; 1
    58ae:	20 f4       	brcc	.+8      	; 0x58b8 <__fp_mpack_finite+0xc>
    58b0:	87 95       	ror	r24
    58b2:	77 95       	ror	r23
    58b4:	67 95       	ror	r22
    58b6:	b7 95       	ror	r27
    58b8:	88 0f       	add	r24, r24
    58ba:	91 1d       	adc	r25, r1
    58bc:	96 95       	lsr	r25
    58be:	87 95       	ror	r24
    58c0:	97 f9       	bld	r25, 7
    58c2:	08 95       	ret

000058c4 <__fp_powser>:
    58c4:	df 93       	push	r29
    58c6:	cf 93       	push	r28
    58c8:	1f 93       	push	r17
    58ca:	0f 93       	push	r16
    58cc:	ff 92       	push	r15
    58ce:	ef 92       	push	r14
    58d0:	df 92       	push	r13
    58d2:	7b 01       	movw	r14, r22
    58d4:	8c 01       	movw	r16, r24
    58d6:	68 94       	set
    58d8:	05 c0       	rjmp	.+10     	; 0x58e4 <__fp_powser+0x20>
    58da:	da 2e       	mov	r13, r26
    58dc:	ef 01       	movw	r28, r30
    58de:	d5 de       	rcall	.-598    	; 0x568a <__mulsf3x>
    58e0:	fe 01       	movw	r30, r28
    58e2:	e8 94       	clt
    58e4:	a5 91       	lpm	r26, Z+
    58e6:	25 91       	lpm	r18, Z+
    58e8:	35 91       	lpm	r19, Z+
    58ea:	45 91       	lpm	r20, Z+
    58ec:	55 91       	lpm	r21, Z+
    58ee:	ae f3       	brts	.-22     	; 0x58da <__fp_powser+0x16>
    58f0:	ef 01       	movw	r28, r30
    58f2:	19 dd       	rcall	.-1486   	; 0x5326 <__addsf3x>
    58f4:	fe 01       	movw	r30, r28
    58f6:	97 01       	movw	r18, r14
    58f8:	a8 01       	movw	r20, r16
    58fa:	da 94       	dec	r13
    58fc:	79 f7       	brne	.-34     	; 0x58dc <__fp_powser+0x18>
    58fe:	df 90       	pop	r13
    5900:	ef 90       	pop	r14
    5902:	ff 90       	pop	r15
    5904:	0f 91       	pop	r16
    5906:	1f 91       	pop	r17
    5908:	cf 91       	pop	r28
    590a:	df 91       	pop	r29
    590c:	08 95       	ret

0000590e <inverse>:
    590e:	9b 01       	movw	r18, r22
    5910:	ac 01       	movw	r20, r24
    5912:	60 e0       	ldi	r22, 0x00	; 0
    5914:	70 e0       	ldi	r23, 0x00	; 0
    5916:	80 e8       	ldi	r24, 0x80	; 128
    5918:	9f e3       	ldi	r25, 0x3F	; 63
    591a:	5c cd       	rjmp	.-1352   	; 0x53d4 <__divsf3>
    591c:	55 ce       	rjmp	.-854    	; 0x55c8 <__fp_inf>
    591e:	c4 cf       	rjmp	.-120    	; 0x58a8 <__fp_mpack>

00005920 <ldexp>:
    5920:	83 de       	rcall	.-762    	; 0x5628 <__fp_splitA>
    5922:	e8 f3       	brcs	.-6      	; 0x591e <inverse+0x10>
    5924:	99 23       	and	r25, r25
    5926:	d9 f3       	breq	.-10     	; 0x591e <inverse+0x10>
    5928:	94 0f       	add	r25, r20
    592a:	51 1d       	adc	r21, r1
    592c:	bb f3       	brvs	.-18     	; 0x591c <inverse+0xe>
    592e:	91 50       	subi	r25, 0x01	; 1
    5930:	50 40       	sbci	r21, 0x00	; 0
    5932:	94 f0       	brlt	.+36     	; 0x5958 <ldexp+0x38>
    5934:	59 f0       	breq	.+22     	; 0x594c <ldexp+0x2c>
    5936:	88 23       	and	r24, r24
    5938:	32 f0       	brmi	.+12     	; 0x5946 <ldexp+0x26>
    593a:	66 0f       	add	r22, r22
    593c:	77 1f       	adc	r23, r23
    593e:	88 1f       	adc	r24, r24
    5940:	91 50       	subi	r25, 0x01	; 1
    5942:	50 40       	sbci	r21, 0x00	; 0
    5944:	c1 f7       	brne	.-16     	; 0x5936 <ldexp+0x16>
    5946:	9e 3f       	cpi	r25, 0xFE	; 254
    5948:	51 05       	cpc	r21, r1
    594a:	44 f7       	brge	.-48     	; 0x591c <inverse+0xe>
    594c:	88 0f       	add	r24, r24
    594e:	91 1d       	adc	r25, r1
    5950:	96 95       	lsr	r25
    5952:	87 95       	ror	r24
    5954:	97 f9       	bld	r25, 7
    5956:	08 95       	ret
    5958:	5f 3f       	cpi	r21, 0xFF	; 255
    595a:	ac f0       	brlt	.+42     	; 0x5986 <ldexp+0x66>
    595c:	98 3e       	cpi	r25, 0xE8	; 232
    595e:	9c f0       	brlt	.+38     	; 0x5986 <ldexp+0x66>
    5960:	bb 27       	eor	r27, r27
    5962:	86 95       	lsr	r24
    5964:	77 95       	ror	r23
    5966:	67 95       	ror	r22
    5968:	b7 95       	ror	r27
    596a:	08 f4       	brcc	.+2      	; 0x596e <ldexp+0x4e>
    596c:	b1 60       	ori	r27, 0x01	; 1
    596e:	93 95       	inc	r25
    5970:	c1 f7       	brne	.-16     	; 0x5962 <ldexp+0x42>
    5972:	bb 0f       	add	r27, r27
    5974:	58 f7       	brcc	.-42     	; 0x594c <ldexp+0x2c>
    5976:	11 f4       	brne	.+4      	; 0x597c <ldexp+0x5c>
    5978:	60 ff       	sbrs	r22, 0
    597a:	e8 cf       	rjmp	.-48     	; 0x594c <ldexp+0x2c>
    597c:	6f 5f       	subi	r22, 0xFF	; 255
    597e:	7f 4f       	sbci	r23, 0xFF	; 255
    5980:	8f 4f       	sbci	r24, 0xFF	; 255
    5982:	9f 4f       	sbci	r25, 0xFF	; 255
    5984:	e3 cf       	rjmp	.-58     	; 0x594c <ldexp+0x2c>
    5986:	6b ce       	rjmp	.-810    	; 0x565e <__fp_szero>
    5988:	0e f0       	brts	.+2      	; 0x598c <ldexp+0x6c>
    598a:	8e cf       	rjmp	.-228    	; 0x58a8 <__fp_mpack>
    598c:	23 ce       	rjmp	.-954    	; 0x55d4 <__fp_nan>
    598e:	68 94       	set
    5990:	1b ce       	rjmp	.-970    	; 0x55c8 <__fp_inf>

00005992 <log>:
    5992:	4a de       	rcall	.-876    	; 0x5628 <__fp_splitA>
    5994:	c8 f3       	brcs	.-14     	; 0x5988 <ldexp+0x68>
    5996:	99 23       	and	r25, r25
    5998:	d1 f3       	breq	.-12     	; 0x598e <ldexp+0x6e>
    599a:	c6 f3       	brts	.-16     	; 0x598c <ldexp+0x6c>
    599c:	df 93       	push	r29
    599e:	cf 93       	push	r28
    59a0:	1f 93       	push	r17
    59a2:	0f 93       	push	r16
    59a4:	ff 92       	push	r15
    59a6:	c9 2f       	mov	r28, r25
    59a8:	dd 27       	eor	r29, r29
    59aa:	88 23       	and	r24, r24
    59ac:	2a f0       	brmi	.+10     	; 0x59b8 <log+0x26>
    59ae:	21 97       	sbiw	r28, 0x01	; 1
    59b0:	66 0f       	add	r22, r22
    59b2:	77 1f       	adc	r23, r23
    59b4:	88 1f       	adc	r24, r24
    59b6:	da f7       	brpl	.-10     	; 0x59ae <log+0x1c>
    59b8:	20 e0       	ldi	r18, 0x00	; 0
    59ba:	30 e0       	ldi	r19, 0x00	; 0
    59bc:	40 e8       	ldi	r20, 0x80	; 128
    59be:	5f eb       	ldi	r21, 0xBF	; 191
    59c0:	9f e3       	ldi	r25, 0x3F	; 63
    59c2:	88 39       	cpi	r24, 0x98	; 152
    59c4:	20 f0       	brcs	.+8      	; 0x59ce <log+0x3c>
    59c6:	80 3e       	cpi	r24, 0xE0	; 224
    59c8:	30 f0       	brcs	.+12     	; 0x59d6 <log+0x44>
    59ca:	21 96       	adiw	r28, 0x01	; 1
    59cc:	8f 77       	andi	r24, 0x7F	; 127
    59ce:	9a dc       	rcall	.-1740   	; 0x5304 <__addsf3>
    59d0:	e0 e9       	ldi	r30, 0x90	; 144
    59d2:	f0 e0       	ldi	r31, 0x00	; 0
    59d4:	03 c0       	rjmp	.+6      	; 0x59dc <log+0x4a>
    59d6:	96 dc       	rcall	.-1748   	; 0x5304 <__addsf3>
    59d8:	ed eb       	ldi	r30, 0xBD	; 189
    59da:	f0 e0       	ldi	r31, 0x00	; 0
    59dc:	73 df       	rcall	.-282    	; 0x58c4 <__fp_powser>
    59de:	8b 01       	movw	r16, r22
    59e0:	be 01       	movw	r22, r28
    59e2:	ec 01       	movw	r28, r24
    59e4:	fb 2e       	mov	r15, r27
    59e6:	6f 57       	subi	r22, 0x7F	; 127
    59e8:	71 09       	sbc	r23, r1
    59ea:	75 95       	asr	r23
    59ec:	77 1f       	adc	r23, r23
    59ee:	88 0b       	sbc	r24, r24
    59f0:	99 0b       	sbc	r25, r25
    59f2:	8b dd       	rcall	.-1258   	; 0x550a <__floatsisf>
    59f4:	28 e1       	ldi	r18, 0x18	; 24
    59f6:	32 e7       	ldi	r19, 0x72	; 114
    59f8:	41 e3       	ldi	r20, 0x31	; 49
    59fa:	5f e3       	ldi	r21, 0x3F	; 63
    59fc:	46 de       	rcall	.-884    	; 0x568a <__mulsf3x>
    59fe:	af 2d       	mov	r26, r15
    5a00:	98 01       	movw	r18, r16
    5a02:	ae 01       	movw	r20, r28
    5a04:	ff 90       	pop	r15
    5a06:	0f 91       	pop	r16
    5a08:	1f 91       	pop	r17
    5a0a:	cf 91       	pop	r28
    5a0c:	df 91       	pop	r29
    5a0e:	8b dc       	rcall	.-1770   	; 0x5326 <__addsf3x>
    5a10:	f2 cd       	rjmp	.-1052   	; 0x55f6 <__fp_round>

00005a12 <modf>:
    5a12:	fa 01       	movw	r30, r20
    5a14:	dc 01       	movw	r26, r24
    5a16:	aa 0f       	add	r26, r26
    5a18:	bb 1f       	adc	r27, r27
    5a1a:	9b 01       	movw	r18, r22
    5a1c:	ac 01       	movw	r20, r24
    5a1e:	bf 57       	subi	r27, 0x7F	; 127
    5a20:	28 f4       	brcc	.+10     	; 0x5a2c <modf+0x1a>
    5a22:	22 27       	eor	r18, r18
    5a24:	33 27       	eor	r19, r19
    5a26:	44 27       	eor	r20, r20
    5a28:	50 78       	andi	r21, 0x80	; 128
    5a2a:	1f c0       	rjmp	.+62     	; 0x5a6a <modf+0x58>
    5a2c:	b7 51       	subi	r27, 0x17	; 23
    5a2e:	88 f4       	brcc	.+34     	; 0x5a52 <modf+0x40>
    5a30:	ab 2f       	mov	r26, r27
    5a32:	00 24       	eor	r0, r0
    5a34:	46 95       	lsr	r20
    5a36:	37 95       	ror	r19
    5a38:	27 95       	ror	r18
    5a3a:	01 1c       	adc	r0, r1
    5a3c:	a3 95       	inc	r26
    5a3e:	d2 f3       	brmi	.-12     	; 0x5a34 <modf+0x22>
    5a40:	00 20       	and	r0, r0
    5a42:	69 f0       	breq	.+26     	; 0x5a5e <modf+0x4c>
    5a44:	22 0f       	add	r18, r18
    5a46:	33 1f       	adc	r19, r19
    5a48:	44 1f       	adc	r20, r20
    5a4a:	b3 95       	inc	r27
    5a4c:	da f3       	brmi	.-10     	; 0x5a44 <modf+0x32>
    5a4e:	0d d0       	rcall	.+26     	; 0x5a6a <modf+0x58>
    5a50:	58 cc       	rjmp	.-1872   	; 0x5302 <__subsf3>
    5a52:	61 30       	cpi	r22, 0x01	; 1
    5a54:	71 05       	cpc	r23, r1
    5a56:	a0 e8       	ldi	r26, 0x80	; 128
    5a58:	8a 07       	cpc	r24, r26
    5a5a:	b9 46       	sbci	r27, 0x69	; 105
    5a5c:	30 f4       	brcc	.+12     	; 0x5a6a <modf+0x58>
    5a5e:	9b 01       	movw	r18, r22
    5a60:	ac 01       	movw	r20, r24
    5a62:	66 27       	eor	r22, r22
    5a64:	77 27       	eor	r23, r23
    5a66:	88 27       	eor	r24, r24
    5a68:	90 78       	andi	r25, 0x80	; 128
    5a6a:	30 96       	adiw	r30, 0x00	; 0
    5a6c:	21 f0       	breq	.+8      	; 0x5a76 <modf+0x64>
    5a6e:	20 83       	st	Z, r18
    5a70:	31 83       	std	Z+1, r19	; 0x01
    5a72:	42 83       	std	Z+2, r20	; 0x02
    5a74:	53 83       	std	Z+3, r21	; 0x03
    5a76:	08 95       	ret

00005a78 <u8g_Pin>:
typedef volatile uint8_t * IO_PTR;

/* create internal pin number */
uint8_t u8g_Pin(uint8_t port, uint8_t bitpos)
{
  port <<= 3;
    5a78:	88 0f       	add	r24, r24
    5a7a:	88 0f       	add	r24, r24
    5a7c:	88 0f       	add	r24, r24
  port += bitpos;
  return port;
}
    5a7e:	86 0f       	add	r24, r22
    5a80:	08 95       	ret

00005a82 <u8g_SetPIOutput>:


#if defined(U8G_WITH_PINLIST)

void u8g_SetPIOutput(u8g_t *u8g, uint8_t pi)
{
    5a82:	1f 93       	push	r17
    5a84:	cf 93       	push	r28
    5a86:	df 93       	push	r29
    5a88:	00 d0       	rcall	.+0      	; 0x5a8a <u8g_SetPIOutput+0x8>
    5a8a:	cd b7       	in	r28, 0x3d	; 61
    5a8c:	de b7       	in	r29, 0x3e	; 62
  uint8_t pin;
  pin = u8g->pin_list[pi];
    5a8e:	86 0f       	add	r24, r22
    5a90:	91 1d       	adc	r25, r1
    5a92:	fc 01       	movw	r30, r24
    5a94:	13 a1       	ldd	r17, Z+35	; 0x23
  if ( pin != U8G_PIN_NONE )
    5a96:	1f 3f       	cpi	r17, 0xFF	; 255
    5a98:	d9 f0       	breq	.+54     	; 0x5ad0 <u8g_SetPIOutput+0x4e>
}

/* set direction to output of the specified pin (internal pin number) */
void u8g_SetPinOutput(uint8_t internal_pin_number)
{
  *u8g_get_avr_io_ptr(u8g_avr_ddr_P, internal_pin_number>>3) |= _BV(internal_pin_number&7);
    5a9a:	61 2f       	mov	r22, r17
    5a9c:	66 95       	lsr	r22
    5a9e:	66 95       	lsr	r22
    5aa0:	66 95       	lsr	r22
};

static volatile uint8_t *u8g_get_avr_io_ptr(const IO_PTR *base, uint8_t offset)
{
  volatile uint8_t * tmp;
  base += offset;
    5aa2:	70 e0       	ldi	r23, 0x00	; 0
    5aa4:	66 0f       	add	r22, r22
    5aa6:	77 1f       	adc	r23, r23
    5aa8:	68 59       	subi	r22, 0x98	; 152
    5aaa:	7e 4f       	sbci	r23, 0xFE	; 254
  memcpy_P(&tmp, base, sizeof(volatile uint8_t * PROGMEM));
    5aac:	42 e0       	ldi	r20, 0x02	; 2
    5aae:	50 e0       	ldi	r21, 0x00	; 0
    5ab0:	ce 01       	movw	r24, r28
    5ab2:	01 96       	adiw	r24, 0x01	; 1
    5ab4:	0e 94 f2 35 	call	0x6be4	; 0x6be4 <memcpy_P>
  return tmp; 
    5ab8:	e9 81       	ldd	r30, Y+1	; 0x01
    5aba:	fa 81       	ldd	r31, Y+2	; 0x02
}

/* set direction to output of the specified pin (internal pin number) */
void u8g_SetPinOutput(uint8_t internal_pin_number)
{
  *u8g_get_avr_io_ptr(u8g_avr_ddr_P, internal_pin_number>>3) |= _BV(internal_pin_number&7);
    5abc:	20 81       	ld	r18, Z
    5abe:	17 70       	andi	r17, 0x07	; 7
    5ac0:	81 e0       	ldi	r24, 0x01	; 1
    5ac2:	90 e0       	ldi	r25, 0x00	; 0
    5ac4:	01 c0       	rjmp	.+2      	; 0x5ac8 <u8g_SetPIOutput+0x46>
    5ac6:	88 0f       	add	r24, r24
    5ac8:	1a 95       	dec	r17
    5aca:	ea f7       	brpl	.-6      	; 0x5ac6 <u8g_SetPIOutput+0x44>
    5acc:	28 2b       	or	r18, r24
    5ace:	20 83       	st	Z, r18
{
  uint8_t pin;
  pin = u8g->pin_list[pi];
  if ( pin != U8G_PIN_NONE )
    u8g_SetPinOutput(pin);
}
    5ad0:	0f 90       	pop	r0
    5ad2:	0f 90       	pop	r0
    5ad4:	df 91       	pop	r29
    5ad6:	cf 91       	pop	r28
    5ad8:	1f 91       	pop	r17
    5ada:	08 95       	ret

00005adc <u8g_SetPILevel>:

void u8g_SetPILevel(u8g_t *u8g, uint8_t pi, uint8_t level)
{
    5adc:	0f 93       	push	r16
    5ade:	1f 93       	push	r17
    5ae0:	cf 93       	push	r28
    5ae2:	df 93       	push	r29
    5ae4:	00 d0       	rcall	.+0      	; 0x5ae6 <u8g_SetPILevel+0xa>
    5ae6:	cd b7       	in	r28, 0x3d	; 61
    5ae8:	de b7       	in	r29, 0x3e	; 62
    5aea:	04 2f       	mov	r16, r20
  uint8_t pin;
  pin = u8g->pin_list[pi];
    5aec:	86 0f       	add	r24, r22
    5aee:	91 1d       	adc	r25, r1
    5af0:	fc 01       	movw	r30, r24
    5af2:	13 a1       	ldd	r17, Z+35	; 0x23
  if ( pin != U8G_PIN_NONE )
    5af4:	1f 3f       	cpi	r17, 0xFF	; 255
    5af6:	01 f1       	breq	.+64     	; 0x5b38 <u8g_SetPILevel+0x5c>
  *u8g_get_avr_io_ptr(u8g_avr_ddr_P, internal_pin_number>>3) &= ~_BV(internal_pin_number&7);
}

void u8g_SetPinLevel(uint8_t internal_pin_number, uint8_t level)
{
  volatile uint8_t * tmp = u8g_get_avr_io_ptr(u8g_avr_port_P, internal_pin_number>>3);
    5af8:	61 2f       	mov	r22, r17
    5afa:	66 95       	lsr	r22
    5afc:	66 95       	lsr	r22
    5afe:	66 95       	lsr	r22
};

static volatile uint8_t *u8g_get_avr_io_ptr(const IO_PTR *base, uint8_t offset)
{
  volatile uint8_t * tmp;
  base += offset;
    5b00:	70 e0       	ldi	r23, 0x00	; 0
    5b02:	66 0f       	add	r22, r22
    5b04:	77 1f       	adc	r23, r23
    5b06:	60 5a       	subi	r22, 0xA0	; 160
    5b08:	7e 4f       	sbci	r23, 0xFE	; 254
  memcpy_P(&tmp, base, sizeof(volatile uint8_t * PROGMEM));
    5b0a:	42 e0       	ldi	r20, 0x02	; 2
    5b0c:	50 e0       	ldi	r21, 0x00	; 0
    5b0e:	ce 01       	movw	r24, r28
    5b10:	01 96       	adiw	r24, 0x01	; 1
    5b12:	0e 94 f2 35 	call	0x6be4	; 0x6be4 <memcpy_P>
  return tmp; 
    5b16:	e9 81       	ldd	r30, Y+1	; 0x01
    5b18:	fa 81       	ldd	r31, Y+2	; 0x02

void u8g_SetPinLevel(uint8_t internal_pin_number, uint8_t level)
{
  volatile uint8_t * tmp = u8g_get_avr_io_ptr(u8g_avr_port_P, internal_pin_number>>3);
  
  if ( level == 0 )
    5b1a:	00 23       	and	r16, r16
    5b1c:	a1 f0       	breq	.+40     	; 0x5b46 <u8g_SetPILevel+0x6a>
    U8G_ATOMIC_AND(tmp, ~_BV(internal_pin_number&7));
   // *tmp &= ~_BV(internal_pin_number&7);
  }
  else
  {
    U8G_ATOMIC_OR(tmp, _BV(internal_pin_number&7));
    5b1e:	3f b7       	in	r19, 0x3f	; 63
    5b20:	f8 94       	cli
    5b22:	20 81       	ld	r18, Z
    5b24:	17 70       	andi	r17, 0x07	; 7
    5b26:	81 e0       	ldi	r24, 0x01	; 1
    5b28:	90 e0       	ldi	r25, 0x00	; 0
    5b2a:	01 c0       	rjmp	.+2      	; 0x5b2e <u8g_SetPILevel+0x52>
    5b2c:	88 0f       	add	r24, r24
    5b2e:	1a 95       	dec	r17
    5b30:	ea f7       	brpl	.-6      	; 0x5b2c <u8g_SetPILevel+0x50>
    5b32:	28 2b       	or	r18, r24
    5b34:	20 83       	st	Z, r18
    5b36:	3f bf       	out	0x3f, r19	; 63
{
  uint8_t pin;
  pin = u8g->pin_list[pi];
  if ( pin != U8G_PIN_NONE )
    u8g_SetPinLevel(pin, level);
}
    5b38:	0f 90       	pop	r0
    5b3a:	0f 90       	pop	r0
    5b3c:	df 91       	pop	r29
    5b3e:	cf 91       	pop	r28
    5b40:	1f 91       	pop	r17
    5b42:	0f 91       	pop	r16
    5b44:	08 95       	ret
{
  volatile uint8_t * tmp = u8g_get_avr_io_ptr(u8g_avr_port_P, internal_pin_number>>3);
  
  if ( level == 0 )
  {
    U8G_ATOMIC_AND(tmp, ~_BV(internal_pin_number&7));
    5b46:	2f b7       	in	r18, 0x3f	; 63
    5b48:	f8 94       	cli
    5b4a:	30 81       	ld	r19, Z
    5b4c:	17 70       	andi	r17, 0x07	; 7
    5b4e:	81 e0       	ldi	r24, 0x01	; 1
    5b50:	90 e0       	ldi	r25, 0x00	; 0
    5b52:	01 c0       	rjmp	.+2      	; 0x5b56 <u8g_SetPILevel+0x7a>
    5b54:	88 0f       	add	r24, r24
    5b56:	1a 95       	dec	r17
    5b58:	ea f7       	brpl	.-6      	; 0x5b54 <u8g_SetPILevel+0x78>
    5b5a:	80 95       	com	r24
    5b5c:	83 23       	and	r24, r19
    5b5e:	80 83       	st	Z, r24
    5b60:	2f bf       	out	0x3f, r18	; 63
{
  uint8_t pin;
  pin = u8g->pin_list[pi];
  if ( pin != U8G_PIN_NONE )
    u8g_SetPinLevel(pin, level);
}
    5b62:	0f 90       	pop	r0
    5b64:	0f 90       	pop	r0
    5b66:	df 91       	pop	r29
    5b68:	cf 91       	pop	r28
    5b6a:	1f 91       	pop	r17
    5b6c:	0f 91       	pop	r16
    5b6e:	08 95       	ret

00005b70 <u8g_Delay>:
  ==> must be devided by 4, rounded up 7/4 = 2
*/
void u8g_Delay(uint16_t val)
{
  /* old version did a call to the arduino lib: delay(val); */
  while( val != 0 )
    5b70:	00 97       	sbiw	r24, 0x00	; 0
    5b72:	41 f0       	breq	.+16     	; 0x5b84 <u8g_Delay+0x14>
    milliseconds can be achieved.
 */
void
_delay_loop_2(uint16_t __count)
{
	__asm__ volatile (
    5b74:	2e ec       	ldi	r18, 0xCE	; 206
    5b76:	37 e0       	ldi	r19, 0x07	; 7
    5b78:	f9 01       	movw	r30, r18
    5b7a:	31 97       	sbiw	r30, 0x01	; 1
    5b7c:	f1 f7       	brne	.-4      	; 0x5b7a <u8g_Delay+0xa>
  {
    _delay_loop_2( (F_CPU / 4000 ) -2);
    val--;
    5b7e:	01 97       	sbiw	r24, 0x01	; 1
  ==> must be devided by 4, rounded up 7/4 = 2
*/
void u8g_Delay(uint16_t val)
{
  /* old version did a call to the arduino lib: delay(val); */
  while( val != 0 )
    5b80:	00 97       	sbiw	r24, 0x00	; 0
    5b82:	d1 f7       	brne	.-12     	; 0x5b78 <u8g_Delay+0x8>
    5b84:	08 95       	ret

00005b86 <u8g_dev_ssd1306_128x64_fn>:
  U8G_ESC_CS(0),             /* disable chip, bugfix 12 nov 2014 */
  U8G_ESC_END                /* end of sequence */
};

uint8_t u8g_dev_ssd1306_128x64_fn(u8g_t *u8g, u8g_dev_t *dev, uint8_t msg, void *arg)
{
    5b86:	af 92       	push	r10
    5b88:	bf 92       	push	r11
    5b8a:	df 92       	push	r13
    5b8c:	ef 92       	push	r14
    5b8e:	ff 92       	push	r15
    5b90:	0f 93       	push	r16
    5b92:	1f 93       	push	r17
    5b94:	cf 93       	push	r28
    5b96:	df 93       	push	r29
    5b98:	00 d0       	rcall	.+0      	; 0x5b9a <u8g_dev_ssd1306_128x64_fn+0x14>
    5b9a:	cd b7       	in	r28, 0x3d	; 61
    5b9c:	de b7       	in	r29, 0x3e	; 62
    5b9e:	8c 01       	movw	r16, r24
    5ba0:	5b 01       	movw	r10, r22
    5ba2:	d4 2e       	mov	r13, r20
  switch(msg)
    5ba4:	80 e1       	ldi	r24, 0x10	; 16
    5ba6:	48 17       	cp	r20, r24
    5ba8:	09 f4       	brne	.+2      	; 0x5bac <u8g_dev_ssd1306_128x64_fn+0x26>
    5baa:	5a c0       	rjmp	.+180    	; 0x5c60 <u8g_dev_ssd1306_128x64_fn+0xda>
    5bac:	84 17       	cp	r24, r20
    5bae:	b8 f5       	brcc	.+110    	; 0x5c1e <u8g_dev_ssd1306_128x64_fn+0x98>
    5bb0:	f1 e1       	ldi	r31, 0x11	; 17
    5bb2:	4f 17       	cp	r20, r31
    5bb4:	11 f1       	breq	.+68     	; 0x5bfa <u8g_dev_ssd1306_128x64_fn+0x74>
    5bb6:	85 e1       	ldi	r24, 0x15	; 21
    5bb8:	48 13       	cpse	r20, r24
    5bba:	42 c0       	rjmp	.+132    	; 0x5c40 <u8g_dev_ssd1306_128x64_fn+0xba>
      break;
    case U8G_DEV_MSG_STOP:
      break;
    case U8G_DEV_MSG_PAGE_NEXT:
      {
        u8g_pb_t *pb = (u8g_pb_t *)(dev->dev_mem);
    5bbc:	fb 01       	movw	r30, r22
    5bbe:	e2 80       	ldd	r14, Z+2	; 0x02
    5bc0:	f3 80       	ldd	r15, Z+3	; 0x03
        u8g_WriteEscSeqP(u8g, dev, u8g_dev_ssd1306_128x64_data_start);    
    5bc2:	44 e8       	ldi	r20, 0x84	; 132
    5bc4:	51 e0       	ldi	r21, 0x01	; 1
    5bc6:	c8 01       	movw	r24, r16
    5bc8:	29 83       	std	Y+1, r18	; 0x01
    5bca:	3a 83       	std	Y+2, r19	; 0x02
    5bcc:	0e 94 6b 34 	call	0x68d6	; 0x68d6 <u8g_WriteEscSeqP>
        u8g_WriteByte(u8g, dev, 0x0b0 | pb->p.page); /* select current page (SSD1306) */
    5bd0:	f7 01       	movw	r30, r14
    5bd2:	44 81       	ldd	r20, Z+4	; 0x04
    5bd4:	40 6b       	ori	r20, 0xB0	; 176
    5bd6:	b5 01       	movw	r22, r10
    5bd8:	c8 01       	movw	r24, r16
    5bda:	0e 94 5b 34 	call	0x68b6	; 0x68b6 <u8g_WriteByte>
        u8g_SetAddress(u8g, dev, 1);           /* data mode */
    5bde:	41 e0       	ldi	r20, 0x01	; 1
    5be0:	b5 01       	movw	r22, r10
    5be2:	c8 01       	movw	r24, r16
    5be4:	0e 94 52 34 	call	0x68a4	; 0x68a4 <u8g_SetAddress>
        if ( u8g_pb_WriteBuffer(pb, u8g, dev) == 0 )
    5be8:	a5 01       	movw	r20, r10
    5bea:	b8 01       	movw	r22, r16
    5bec:	c7 01       	movw	r24, r14
    5bee:	0e 94 2d 32 	call	0x645a	; 0x645a <u8g_pb_WriteBuffer>
    5bf2:	81 11       	cpse	r24, r1
    5bf4:	3c c0       	rjmp	.+120    	; 0x5c6e <u8g_dev_ssd1306_128x64_fn+0xe8>
          return 0;
    5bf6:	80 e0       	ldi	r24, 0x00	; 0
    5bf8:	06 c0       	rjmp	.+12     	; 0x5c06 <u8g_dev_ssd1306_128x64_fn+0x80>
      break;
    case U8G_DEV_MSG_SLEEP_ON:
      u8g_WriteEscSeqP(u8g, dev, u8g_dev_ssd13xx_sleep_on);    
      return 1;
    case U8G_DEV_MSG_SLEEP_OFF:
      u8g_WriteEscSeqP(u8g, dev, u8g_dev_ssd13xx_sleep_off);    
    5bfa:	40 e7       	ldi	r20, 0x70	; 112
    5bfc:	51 e0       	ldi	r21, 0x01	; 1
    5bfe:	c8 01       	movw	r24, r16
    5c00:	0e 94 6b 34 	call	0x68d6	; 0x68d6 <u8g_WriteEscSeqP>
      return 1;
    5c04:	81 e0       	ldi	r24, 0x01	; 1
  }
  return u8g_dev_pb8v1_base_fn(u8g, dev, msg, arg);
}
    5c06:	0f 90       	pop	r0
    5c08:	0f 90       	pop	r0
    5c0a:	df 91       	pop	r29
    5c0c:	cf 91       	pop	r28
    5c0e:	1f 91       	pop	r17
    5c10:	0f 91       	pop	r16
    5c12:	ff 90       	pop	r15
    5c14:	ef 90       	pop	r14
    5c16:	df 90       	pop	r13
    5c18:	bf 90       	pop	r11
    5c1a:	af 90       	pop	r10
    5c1c:	08 95       	ret
  U8G_ESC_END                /* end of sequence */
};

uint8_t u8g_dev_ssd1306_128x64_fn(u8g_t *u8g, u8g_dev_t *dev, uint8_t msg, void *arg)
{
  switch(msg)
    5c1e:	ea e0       	ldi	r30, 0x0A	; 10
    5c20:	4e 13       	cpse	r20, r30
    5c22:	0e c0       	rjmp	.+28     	; 0x5c40 <u8g_dev_ssd1306_128x64_fn+0xba>
  {
    case U8G_DEV_MSG_INIT:
      u8g_InitCom(u8g, dev, U8G_SPI_CLK_CYCLE_300NS);
    5c24:	42 e0       	ldi	r20, 0x02	; 2
    5c26:	c8 01       	movw	r24, r16
    5c28:	29 83       	std	Y+1, r18	; 0x01
    5c2a:	3a 83       	std	Y+2, r19	; 0x02
    5c2c:	0e 94 40 34 	call	0x6880	; 0x6880 <u8g_InitCom>
      u8g_WriteEscSeqP(u8g, dev, u8g_dev_ssd1306_128x64_adafruit2_init_seq);
    5c30:	4c e8       	ldi	r20, 0x8C	; 140
    5c32:	51 e0       	ldi	r21, 0x01	; 1
    5c34:	b5 01       	movw	r22, r10
    5c36:	c8 01       	movw	r24, r16
    5c38:	0e 94 6b 34 	call	0x68d6	; 0x68d6 <u8g_WriteEscSeqP>
      break;
    5c3c:	29 81       	ldd	r18, Y+1	; 0x01
    5c3e:	3a 81       	ldd	r19, Y+2	; 0x02
      return 1;
    case U8G_DEV_MSG_SLEEP_OFF:
      u8g_WriteEscSeqP(u8g, dev, u8g_dev_ssd13xx_sleep_off);    
      return 1;
  }
  return u8g_dev_pb8v1_base_fn(u8g, dev, msg, arg);
    5c40:	4d 2d       	mov	r20, r13
    5c42:	b5 01       	movw	r22, r10
    5c44:	c8 01       	movw	r24, r16
}
    5c46:	0f 90       	pop	r0
    5c48:	0f 90       	pop	r0
    5c4a:	df 91       	pop	r29
    5c4c:	cf 91       	pop	r28
    5c4e:	1f 91       	pop	r17
    5c50:	0f 91       	pop	r16
    5c52:	ff 90       	pop	r15
    5c54:	ef 90       	pop	r14
    5c56:	df 90       	pop	r13
    5c58:	bf 90       	pop	r11
    5c5a:	af 90       	pop	r10
      return 1;
    case U8G_DEV_MSG_SLEEP_OFF:
      u8g_WriteEscSeqP(u8g, dev, u8g_dev_ssd13xx_sleep_off);    
      return 1;
  }
  return u8g_dev_pb8v1_base_fn(u8g, dev, msg, arg);
    5c5c:	0c 94 67 32 	jmp	0x64ce	; 0x64ce <u8g_dev_pb8v1_base_fn>
          return 0;
        u8g_SetChipSelect(u8g, dev, 0);
      }
      break;
    case U8G_DEV_MSG_SLEEP_ON:
      u8g_WriteEscSeqP(u8g, dev, u8g_dev_ssd13xx_sleep_on);    
    5c60:	4b e7       	ldi	r20, 0x7B	; 123
    5c62:	51 e0       	ldi	r21, 0x01	; 1
    5c64:	c8 01       	movw	r24, r16
    5c66:	0e 94 6b 34 	call	0x68d6	; 0x68d6 <u8g_WriteEscSeqP>
      return 1;
    5c6a:	81 e0       	ldi	r24, 0x01	; 1
    5c6c:	cc cf       	rjmp	.-104    	; 0x5c06 <u8g_dev_ssd1306_128x64_fn+0x80>
        u8g_WriteEscSeqP(u8g, dev, u8g_dev_ssd1306_128x64_data_start);    
        u8g_WriteByte(u8g, dev, 0x0b0 | pb->p.page); /* select current page (SSD1306) */
        u8g_SetAddress(u8g, dev, 1);           /* data mode */
        if ( u8g_pb_WriteBuffer(pb, u8g, dev) == 0 )
          return 0;
        u8g_SetChipSelect(u8g, dev, 0);
    5c6e:	40 e0       	ldi	r20, 0x00	; 0
    5c70:	b5 01       	movw	r22, r10
    5c72:	c8 01       	movw	r24, r16
    5c74:	0e 94 49 34 	call	0x6892	; 0x6892 <u8g_SetChipSelect>
      }
      break;
    5c78:	29 81       	ldd	r18, Y+1	; 0x01
    5c7a:	3a 81       	ldd	r19, Y+2	; 0x02
    5c7c:	e1 cf       	rjmp	.-62     	; 0x5c40 <u8g_dev_ssd1306_128x64_fn+0xba>

00005c7e <u8g_font_get_word>:

static uint16_t u8g_font_get_word(const u8g_fntpgm_uint8_t *font, uint8_t offset) U8G_NOINLINE; 
static uint16_t u8g_font_get_word(const u8g_fntpgm_uint8_t *font, uint8_t offset)
{
    uint16_t pos;
    font += offset;
    5c7e:	fc 01       	movw	r30, r24
    5c80:	e6 0f       	add	r30, r22
    5c82:	f1 1d       	adc	r31, r1
    pos = u8g_pgm_read( (u8g_pgm_uint8_t *)font );
    5c84:	84 91       	lpm	r24, Z
    5c86:	90 e0       	ldi	r25, 0x00	; 0
    font++;
    pos <<= 8;
    5c88:	98 2f       	mov	r25, r24
    5c8a:	88 27       	eor	r24, r24
static uint16_t u8g_font_get_word(const u8g_fntpgm_uint8_t *font, uint8_t offset)
{
    uint16_t pos;
    font += offset;
    pos = u8g_pgm_read( (u8g_pgm_uint8_t *)font );
    font++;
    5c8c:	31 96       	adiw	r30, 0x01	; 1
    pos <<= 8;
    pos += u8g_pgm_read( (u8g_pgm_uint8_t *)font);
    5c8e:	e4 91       	lpm	r30, Z
    return pos;
}
    5c90:	8e 0f       	add	r24, r30
    5c92:	91 1d       	adc	r25, r1
    5c94:	08 95       	ret

00005c96 <u8g_font_GetFormat>:
/* removed NOINLINE, because it leads to smaller code, might also be faster */
//static uint8_t u8g_font_get_byte(const u8g_fntpgm_uint8_t *font, uint8_t offset) U8G_NOINLINE;
static uint8_t u8g_font_get_byte(const u8g_fntpgm_uint8_t *font, uint8_t offset)
{
  font += offset;
  return u8g_pgm_read( (u8g_pgm_uint8_t *)font );  
    5c96:	fc 01       	movw	r30, r24
    5c98:	84 91       	lpm	r24, Z

static uint8_t u8g_font_GetFormat(const u8g_fntpgm_uint8_t *font) U8G_NOINLINE;
static uint8_t u8g_font_GetFormat(const u8g_fntpgm_uint8_t *font)
{
  return u8g_font_get_byte(font, 0);
}
    5c9a:	08 95       	ret

00005c9c <u8g_font_GetFontGlyphStructureSize>:

static uint8_t u8g_font_GetFontGlyphStructureSize(const u8g_fntpgm_uint8_t *font) U8G_NOINLINE;
static uint8_t u8g_font_GetFontGlyphStructureSize(const u8g_fntpgm_uint8_t *font)
{
  switch(u8g_font_GetFormat(font))
    5c9c:	0e 94 4b 2e 	call	0x5c96	; 0x5c96 <u8g_font_GetFormat>
    5ca0:	88 23       	and	r24, r24
    5ca2:	21 f0       	breq	.+8      	; 0x5cac <u8g_font_GetFontGlyphStructureSize+0x10>
    5ca4:	82 30       	cpi	r24, 0x02	; 2
    5ca6:	11 f0       	breq	.+4      	; 0x5cac <u8g_font_GetFontGlyphStructureSize+0x10>
  {
    case 0: return 6;
    case 1: return 3;
    5ca8:	83 e0       	ldi	r24, 0x03	; 3
    case 2: return 6;
  }
  return 3;
}
    5caa:	08 95       	ret
static uint8_t u8g_font_GetFontGlyphStructureSize(const u8g_fntpgm_uint8_t *font) U8G_NOINLINE;
static uint8_t u8g_font_GetFontGlyphStructureSize(const u8g_fntpgm_uint8_t *font)
{
  switch(u8g_font_GetFormat(font))
  {
    case 0: return 6;
    5cac:	86 e0       	ldi	r24, 0x06	; 6
    5cae:	08 95       	ret

00005cb0 <u8g_font_calc_vref_font>:
/* callback procedures to correct the y position */

u8g_uint_t u8g_font_calc_vref_font(u8g_t *u8g)
{
  return 0;
}
    5cb0:	80 e0       	ldi	r24, 0x00	; 0
    5cb2:	08 95       	ret

00005cb4 <u8g_font_GetEncoding65Pos>:
}

uint16_t u8g_font_GetEncoding65Pos(const void *font) U8G_NOINLINE;
uint16_t u8g_font_GetEncoding65Pos(const void *font)
{
    return u8g_font_get_word(font, 6);
    5cb4:	66 e0       	ldi	r22, 0x06	; 6
    5cb6:	0c 94 3f 2e 	jmp	0x5c7e	; 0x5c7e <u8g_font_get_word>

00005cba <u8g_font_GetEncoding97Pos>:
}

uint16_t u8g_font_GetEncoding97Pos(const void *font) U8G_NOINLINE;
uint16_t u8g_font_GetEncoding97Pos(const void *font)
{
    return u8g_font_get_word(font, 8);
    5cba:	68 e0       	ldi	r22, 0x08	; 8
    5cbc:	0c 94 3f 2e 	jmp	0x5c7e	; 0x5c7e <u8g_font_get_word>

00005cc0 <u8g_font_GetFontStartEncoding>:

/* removed NOINLINE, because it leads to smaller code, might also be faster */
//static uint8_t u8g_font_get_byte(const u8g_fntpgm_uint8_t *font, uint8_t offset) U8G_NOINLINE;
static uint8_t u8g_font_get_byte(const u8g_fntpgm_uint8_t *font, uint8_t offset)
{
  font += offset;
    5cc0:	0a 96       	adiw	r24, 0x0a	; 10
  return u8g_pgm_read( (u8g_pgm_uint8_t *)font );  
    5cc2:	fc 01       	movw	r30, r24
    5cc4:	84 91       	lpm	r24, Z
}

uint8_t u8g_font_GetFontStartEncoding(const void *font)
{
  return u8g_font_get_byte(font, 10);
}
    5cc6:	08 95       	ret

00005cc8 <u8g_font_GetFontEndEncoding>:

/* removed NOINLINE, because it leads to smaller code, might also be faster */
//static uint8_t u8g_font_get_byte(const u8g_fntpgm_uint8_t *font, uint8_t offset) U8G_NOINLINE;
static uint8_t u8g_font_get_byte(const u8g_fntpgm_uint8_t *font, uint8_t offset)
{
  font += offset;
    5cc8:	0b 96       	adiw	r24, 0x0b	; 11
  return u8g_pgm_read( (u8g_pgm_uint8_t *)font );  
    5cca:	fc 01       	movw	r30, r24
    5ccc:	84 91       	lpm	r24, Z
}

uint8_t u8g_font_GetFontEndEncoding(const void *font)
{
  return u8g_font_get_byte(font, 11);
}
    5cce:	08 95       	ret

00005cd0 <u8g_GetGlyph>:
/*
  Find (with some speed optimization) and return a pointer to the glyph data structure
  Also uncompress (format 1) and copy the content of the data structure to the u8g structure
*/
u8g_glyph_t u8g_GetGlyph(u8g_t *u8g, uint8_t requested_encoding)
{
    5cd0:	bf 92       	push	r11
    5cd2:	cf 92       	push	r12
    5cd4:	df 92       	push	r13
    5cd6:	ef 92       	push	r14
    5cd8:	ff 92       	push	r15
    5cda:	0f 93       	push	r16
    5cdc:	1f 93       	push	r17
    5cde:	cf 93       	push	r28
    5ce0:	df 93       	push	r29
    5ce2:	8c 01       	movw	r16, r24
    5ce4:	d6 2e       	mov	r13, r22
  uint8_t *p = (uint8_t *)(u8g->font);
    5ce6:	dc 01       	movw	r26, r24
    5ce8:	14 96       	adiw	r26, 0x04	; 4
    5cea:	cd 91       	ld	r28, X+
    5cec:	dc 91       	ld	r29, X
    5cee:	15 97       	sbiw	r26, 0x05	; 5
  uint8_t font_format = u8g_font_GetFormat(u8g->font);
    5cf0:	ce 01       	movw	r24, r28
    5cf2:	0e 94 4b 2e 	call	0x5c96	; 0x5c96 <u8g_font_GetFormat>
    5cf6:	f8 2e       	mov	r15, r24
  uint8_t data_structure_size = u8g_font_GetFontGlyphStructureSize(u8g->font);
    5cf8:	f8 01       	movw	r30, r16
    5cfa:	84 81       	ldd	r24, Z+4	; 0x04
    5cfc:	95 81       	ldd	r25, Z+5	; 0x05
    5cfe:	0e 94 4e 2e 	call	0x5c9c	; 0x5c9c <u8g_font_GetFontGlyphStructureSize>
    5d02:	b8 2e       	mov	r11, r24
  uint8_t start, end;
  uint16_t pos;
  uint8_t i;
  uint8_t mask = 255;

  if ( font_format == 1 )
    5d04:	f1 e0       	ldi	r31, 0x01	; 1
    5d06:	ff 16       	cp	r15, r31
    5d08:	09 f4       	brne	.+2      	; 0x5d0c <u8g_GetGlyph+0x3c>
    5d0a:	9d c0       	rjmp	.+314    	; 0x5e46 <u8g_GetGlyph+0x176>
  uint8_t font_format = u8g_font_GetFormat(u8g->font);
  uint8_t data_structure_size = u8g_font_GetFontGlyphStructureSize(u8g->font);
  uint8_t start, end;
  uint16_t pos;
  uint8_t i;
  uint8_t mask = 255;
    5d0c:	cc 24       	eor	r12, r12
    5d0e:	ca 94       	dec	r12

  if ( font_format == 1 )
    mask = 15;
  
  start = u8g_font_GetFontStartEncoding(u8g->font);
    5d10:	d8 01       	movw	r26, r16
    5d12:	14 96       	adiw	r26, 0x04	; 4
    5d14:	8d 91       	ld	r24, X+
    5d16:	9c 91       	ld	r25, X
    5d18:	15 97       	sbiw	r26, 0x05	; 5
    5d1a:	0e 94 60 2e 	call	0x5cc0	; 0x5cc0 <u8g_font_GetFontStartEncoding>
    5d1e:	f8 2e       	mov	r15, r24
  end = u8g_font_GetFontEndEncoding(u8g->font);
    5d20:	f8 01       	movw	r30, r16
    5d22:	84 81       	ldd	r24, Z+4	; 0x04
    5d24:	95 81       	ldd	r25, Z+5	; 0x05
    5d26:	0e 94 64 2e 	call	0x5cc8	; 0x5cc8 <u8g_font_GetFontEndEncoding>
    5d2a:	e8 2e       	mov	r14, r24

  pos = u8g_font_GetEncoding97Pos(u8g->font);
    5d2c:	d8 01       	movw	r26, r16
    5d2e:	14 96       	adiw	r26, 0x04	; 4
    5d30:	8d 91       	ld	r24, X+
    5d32:	9c 91       	ld	r25, X
    5d34:	15 97       	sbiw	r26, 0x05	; 5
    5d36:	0e 94 5d 2e 	call	0x5cba	; 0x5cba <u8g_font_GetEncoding97Pos>
  if ( requested_encoding >= 97 && pos > 0 )
    5d3a:	b0 e6       	ldi	r27, 0x60	; 96
    5d3c:	bd 15       	cp	r27, r13
    5d3e:	08 f0       	brcs	.+2      	; 0x5d42 <u8g_GetGlyph+0x72>
    5d40:	4a c0       	rjmp	.+148    	; 0x5dd6 <u8g_GetGlyph+0x106>
    5d42:	00 97       	sbiw	r24, 0x00	; 0
    5d44:	09 f4       	brne	.+2      	; 0x5d48 <u8g_GetGlyph+0x78>
    5d46:	3b c0       	rjmp	.+118    	; 0x5dbe <u8g_GetGlyph+0xee>
  {
    p+= pos;
    5d48:	c8 0f       	add	r28, r24
    5d4a:	d9 1f       	adc	r29, r25
    start = 97;
    5d4c:	41 e6       	ldi	r20, 0x61	; 97
    5d4e:	f4 2e       	mov	r15, r20
    }
    else
      p += U8G_FONT_DATA_STRUCT_SIZE;       /* skip font general information */  
  }
  
  if ( requested_encoding > end )
    5d50:	ed 14       	cp	r14, r13
    5d52:	d0 f0       	brcs	.+52     	; 0x5d88 <u8g_GetGlyph+0xb8>
    u8g_FillEmptyGlyphCache(u8g);
    return NULL;                      /* not found */
  }
  
  i = start;
  if ( i <= end )
    5d54:	ef 14       	cp	r14, r15
    5d56:	c0 f0       	brcs	.+48     	; 0x5d88 <u8g_GetGlyph+0xb8>
        {
          u8g_CopyGlyphDataToCache(u8g, p);
          return p;
        }
        p += u8g_pgm_read( ((u8g_pgm_uint8_t *)(p)) + 2 ) & mask;
        p += data_structure_size;
    5d58:	2b 2d       	mov	r18, r11
    5d5a:	30 e0       	ldi	r19, 0x00	; 0
    5d5c:	0e c0       	rjmp	.+28     	; 0x5d7a <u8g_GetGlyph+0xaa>
      {
        p += 1;
      }
      else
      {
        if ( i == requested_encoding )
    5d5e:	fd 14       	cp	r15, r13
    5d60:	09 f4       	brne	.+2      	; 0x5d64 <u8g_GetGlyph+0x94>
    5d62:	43 c0       	rjmp	.+134    	; 0x5dea <u8g_GetGlyph+0x11a>
        {
          u8g_CopyGlyphDataToCache(u8g, p);
          return p;
        }
        p += u8g_pgm_read( ((u8g_pgm_uint8_t *)(p)) + 2 ) & mask;
    5d64:	fe 01       	movw	r30, r28
    5d66:	32 96       	adiw	r30, 0x02	; 2
    5d68:	e4 91       	lpm	r30, Z
    5d6a:	ec 21       	and	r30, r12
    5d6c:	ce 0f       	add	r28, r30
    5d6e:	d1 1d       	adc	r29, r1
        p += data_structure_size;
    5d70:	c2 0f       	add	r28, r18
    5d72:	d3 1f       	adc	r29, r19
      }
      if ( i == end )
    5d74:	fe 14       	cp	r15, r14
    5d76:	41 f0       	breq	.+16     	; 0x5d88 <u8g_GetGlyph+0xb8>
        break;
      i++;
    5d78:	f3 94       	inc	r15
  i = start;
  if ( i <= end )
  {
    for(;;)
    {
      if ( u8g_pgm_read((u8g_pgm_uint8_t *)(p)) == 255 )
    5d7a:	fe 01       	movw	r30, r28
    5d7c:	94 91       	lpm	r25, Z
    5d7e:	9f 3f       	cpi	r25, 0xFF	; 255
    5d80:	71 f7       	brne	.-36     	; 0x5d5e <u8g_GetGlyph+0x8e>
      {
        p += 1;
    5d82:	21 96       	adiw	r28, 0x01	; 1
          return p;
        }
        p += u8g_pgm_read( ((u8g_pgm_uint8_t *)(p)) + 2 ) & mask;
        p += data_structure_size;
      }
      if ( i == end )
    5d84:	fe 10       	cpse	r15, r14
    5d86:	f8 cf       	rjmp	.-16     	; 0x5d78 <u8g_GetGlyph+0xa8>
}

//void u8g_FillEmptyGlyphCache(u8g_t *u8g) U8G_NOINLINE;
static void u8g_FillEmptyGlyphCache(u8g_t *u8g)
{
  u8g->glyph_dx = 0;
    5d88:	d8 01       	movw	r26, r16
    5d8a:	50 96       	adiw	r26, 0x10	; 16
    5d8c:	1c 92       	st	X, r1
    5d8e:	50 97       	sbiw	r26, 0x10	; 16
  u8g->glyph_width = 0;
    5d90:	53 96       	adiw	r26, 0x13	; 19
    5d92:	1c 92       	st	X, r1
    5d94:	53 97       	sbiw	r26, 0x13	; 19
  u8g->glyph_height = 0;
    5d96:	54 96       	adiw	r26, 0x14	; 20
    5d98:	1c 92       	st	X, r1
    5d9a:	54 97       	sbiw	r26, 0x14	; 20
  u8g->glyph_x = 0;
    5d9c:	51 96       	adiw	r26, 0x11	; 17
    5d9e:	1c 92       	st	X, r1
    5da0:	51 97       	sbiw	r26, 0x11	; 17
  u8g->glyph_y = 0;
    5da2:	52 96       	adiw	r26, 0x12	; 18
    5da4:	1c 92       	st	X, r1
  }
  
  if ( requested_encoding > end )
  {
    u8g_FillEmptyGlyphCache(u8g);
    return NULL;                      /* not found */
    5da6:	80 e0       	ldi	r24, 0x00	; 0
    5da8:	90 e0       	ldi	r25, 0x00	; 0
  }
  
  u8g_FillEmptyGlyphCache(u8g);
    
  return NULL;
}
    5daa:	df 91       	pop	r29
    5dac:	cf 91       	pop	r28
    5dae:	1f 91       	pop	r17
    5db0:	0f 91       	pop	r16
    5db2:	ff 90       	pop	r15
    5db4:	ef 90       	pop	r14
    5db6:	df 90       	pop	r13
    5db8:	cf 90       	pop	r12
    5dba:	bf 90       	pop	r11
    5dbc:	08 95       	ret
    p+= pos;
    start = 97;
  }
  else 
  {
    pos = u8g_font_GetEncoding65Pos(u8g->font);
    5dbe:	f8 01       	movw	r30, r16
    5dc0:	84 81       	ldd	r24, Z+4	; 0x04
    5dc2:	95 81       	ldd	r25, Z+5	; 0x05
    5dc4:	0e 94 5a 2e 	call	0x5cb4	; 0x5cb4 <u8g_font_GetEncoding65Pos>
    if ( requested_encoding >= 65 && pos > 0 )
    5dc8:	00 97       	sbiw	r24, 0x00	; 0
    5dca:	69 f0       	breq	.+26     	; 0x5de6 <u8g_GetGlyph+0x116>
    {
      p+= pos;
    5dcc:	c8 0f       	add	r28, r24
    5dce:	d9 1f       	adc	r29, r25
      start = 65;
    5dd0:	31 e4       	ldi	r19, 0x41	; 65
    5dd2:	f3 2e       	mov	r15, r19
    5dd4:	bd cf       	rjmp	.-134    	; 0x5d50 <u8g_GetGlyph+0x80>
    p+= pos;
    start = 97;
  }
  else 
  {
    pos = u8g_font_GetEncoding65Pos(u8g->font);
    5dd6:	f8 01       	movw	r30, r16
    5dd8:	84 81       	ldd	r24, Z+4	; 0x04
    5dda:	95 81       	ldd	r25, Z+5	; 0x05
    5ddc:	0e 94 5a 2e 	call	0x5cb4	; 0x5cb4 <u8g_font_GetEncoding65Pos>
    if ( requested_encoding >= 65 && pos > 0 )
    5de0:	f0 e4       	ldi	r31, 0x40	; 64
    5de2:	fd 15       	cp	r31, r13
    5de4:	88 f3       	brcs	.-30     	; 0x5dc8 <u8g_GetGlyph+0xf8>
    {
      p+= pos;
      start = 65;
    }
    else
      p += U8G_FONT_DATA_STRUCT_SIZE;       /* skip font general information */  
    5de6:	61 96       	adiw	r28, 0x11	; 17
    5de8:	b3 cf       	rjmp	.-154    	; 0x5d50 <u8g_GetGlyph+0x80>
/* glyph handling */

static void u8g_CopyGlyphDataToCache(u8g_t *u8g, u8g_glyph_t g)
{
  uint8_t tmp;
  switch( u8g_font_GetFormat(u8g->font) )
    5dea:	d8 01       	movw	r26, r16
    5dec:	14 96       	adiw	r26, 0x04	; 4
    5dee:	8d 91       	ld	r24, X+
    5df0:	9c 91       	ld	r25, X
    5df2:	15 97       	sbiw	r26, 0x05	; 5
    5df4:	0e 94 4b 2e 	call	0x5c96	; 0x5c96 <u8g_font_GetFormat>
    3             DWIDTH                                          signed
    4             BBX xoffset                                    signed
    5             BBX yoffset                                    signed
  byte 0 == 255 indicates empty glyph
  */
      u8g->glyph_width =  u8g_pgm_read( ((u8g_pgm_uint8_t *)g) + 0 );
    5df8:	fe 01       	movw	r30, r28
/* glyph handling */

static void u8g_CopyGlyphDataToCache(u8g_t *u8g, u8g_glyph_t g)
{
  uint8_t tmp;
  switch( u8g_font_GetFormat(u8g->font) )
    5dfa:	88 23       	and	r24, r24
    5dfc:	39 f1       	breq	.+78     	; 0x5e4c <u8g_GetGlyph+0x17c>
    5dfe:	82 30       	cpi	r24, 0x02	; 2
    5e00:	29 f1       	breq	.+74     	; 0x5e4c <u8g_GetGlyph+0x17c>
  2             data size                                           unsigned -(BBX width + 7)/8 * BBX height  --> lower 4 Bit
  2             DWIDTH                                          signed --> upper  4 Bit
  byte 0 == 255 indicates empty glyph
      */
    
      tmp = u8g_pgm_read( ((u8g_pgm_uint8_t *)g) + 0 );
    5e02:	94 91       	lpm	r25, Z
      u8g->glyph_y =  tmp & 15;
    5e04:	89 2f       	mov	r24, r25
    5e06:	8f 70       	andi	r24, 0x0F	; 15
      u8g->glyph_y-=2;
    5e08:	82 50       	subi	r24, 0x02	; 2
    5e0a:	d8 01       	movw	r26, r16
    5e0c:	52 96       	adiw	r26, 0x12	; 18
    5e0e:	8c 93       	st	X, r24
    5e10:	52 97       	sbiw	r26, 0x12	; 18
      tmp >>= 4;
    5e12:	92 95       	swap	r25
    5e14:	9f 70       	andi	r25, 0x0F	; 15
      u8g->glyph_x =  tmp;
    5e16:	51 96       	adiw	r26, 0x11	; 17
    5e18:	9c 93       	st	X, r25
    
      tmp = u8g_pgm_read( ((u8g_pgm_uint8_t *)g) + 1 );
    5e1a:	31 96       	adiw	r30, 0x01	; 1
    5e1c:	e4 91       	lpm	r30, Z
      u8g->glyph_height =  tmp & 15;
    5e1e:	8e 2f       	mov	r24, r30
    5e20:	8f 70       	andi	r24, 0x0F	; 15
    5e22:	d8 01       	movw	r26, r16
    5e24:	54 96       	adiw	r26, 0x14	; 20
    5e26:	8c 93       	st	X, r24
    5e28:	54 97       	sbiw	r26, 0x14	; 20
      tmp >>= 4;
    5e2a:	e2 95       	swap	r30
    5e2c:	ef 70       	andi	r30, 0x0F	; 15
      u8g->glyph_width =  tmp;
    5e2e:	53 96       	adiw	r26, 0x13	; 19
    5e30:	ec 93       	st	X, r30
      
      tmp = u8g_pgm_read( ((u8g_pgm_uint8_t *)g) + 2 );
    5e32:	fe 01       	movw	r30, r28
    5e34:	32 96       	adiw	r30, 0x02	; 2
    5e36:	e4 91       	lpm	r30, Z
      tmp >>= 4;
    5e38:	e2 95       	swap	r30
    5e3a:	ef 70       	andi	r30, 0x0F	; 15
      u8g->glyph_dx = tmp;
    5e3c:	d8 01       	movw	r26, r16
    5e3e:	50 96       	adiw	r26, 0x10	; 16
    5e40:	ec 93       	st	X, r30
    5e42:	ce 01       	movw	r24, r28
    5e44:	b2 cf       	rjmp	.-156    	; 0x5daa <u8g_GetGlyph+0xda>
  uint16_t pos;
  uint8_t i;
  uint8_t mask = 255;

  if ( font_format == 1 )
    mask = 15;
    5e46:	5f e0       	ldi	r21, 0x0F	; 15
    5e48:	c5 2e       	mov	r12, r21
    5e4a:	62 cf       	rjmp	.-316    	; 0x5d10 <u8g_GetGlyph+0x40>
    3             DWIDTH                                          signed
    4             BBX xoffset                                    signed
    5             BBX yoffset                                    signed
  byte 0 == 255 indicates empty glyph
  */
      u8g->glyph_width =  u8g_pgm_read( ((u8g_pgm_uint8_t *)g) + 0 );
    5e4c:	84 91       	lpm	r24, Z
    5e4e:	d8 01       	movw	r26, r16
    5e50:	53 96       	adiw	r26, 0x13	; 19
    5e52:	8c 93       	st	X, r24
      u8g->glyph_height =  u8g_pgm_read( ((u8g_pgm_uint8_t *)g) + 1 );
    5e54:	31 96       	adiw	r30, 0x01	; 1
    5e56:	e4 91       	lpm	r30, Z
    5e58:	d8 01       	movw	r26, r16
    5e5a:	54 96       	adiw	r26, 0x14	; 20
    5e5c:	ec 93       	st	X, r30
      u8g->glyph_dx =  u8g_pgm_read( ((u8g_pgm_uint8_t *)g) + 3 );
    5e5e:	fe 01       	movw	r30, r28
    5e60:	33 96       	adiw	r30, 0x03	; 3
    5e62:	e4 91       	lpm	r30, Z
    5e64:	d8 01       	movw	r26, r16
    5e66:	50 96       	adiw	r26, 0x10	; 16
    5e68:	ec 93       	st	X, r30
      u8g->glyph_x =  u8g_pgm_read( ((u8g_pgm_uint8_t *)g) + 4 );
    5e6a:	fe 01       	movw	r30, r28
    5e6c:	34 96       	adiw	r30, 0x04	; 4
    5e6e:	e4 91       	lpm	r30, Z
    5e70:	d8 01       	movw	r26, r16
    5e72:	51 96       	adiw	r26, 0x11	; 17
    5e74:	ec 93       	st	X, r30
      u8g->glyph_y =  u8g_pgm_read( ((u8g_pgm_uint8_t *)g) + 5 );
    5e76:	fe 01       	movw	r30, r28
    5e78:	35 96       	adiw	r30, 0x05	; 5
    5e7a:	e4 91       	lpm	r30, Z
    5e7c:	d8 01       	movw	r26, r16
    5e7e:	52 96       	adiw	r26, 0x12	; 18
    5e80:	ec 93       	st	X, r30
    5e82:	ce 01       	movw	r24, r28
    5e84:	92 cf       	rjmp	.-220    	; 0x5daa <u8g_GetGlyph+0xda>

00005e86 <u8g_draw_glyph>:
  return u8g->glyph_dx;
}
#endif

int8_t u8g_draw_glyph(u8g_t *u8g, u8g_uint_t x, u8g_uint_t y, uint8_t encoding)
{
    5e86:	6f 92       	push	r6
    5e88:	7f 92       	push	r7
    5e8a:	8f 92       	push	r8
    5e8c:	9f 92       	push	r9
    5e8e:	af 92       	push	r10
    5e90:	bf 92       	push	r11
    5e92:	cf 92       	push	r12
    5e94:	df 92       	push	r13
    5e96:	ef 92       	push	r14
    5e98:	ff 92       	push	r15
    5e9a:	0f 93       	push	r16
    5e9c:	1f 93       	push	r17
    5e9e:	cf 93       	push	r28
    5ea0:	df 93       	push	r29
    5ea2:	6c 01       	movw	r12, r24
    5ea4:	16 2f       	mov	r17, r22
    5ea6:	64 2e       	mov	r6, r20
  uint8_t w, h;
  uint8_t i, j;
  u8g_uint_t ix, iy;

  {
    u8g_glyph_t g = u8g_GetGlyph(u8g, encoding);
    5ea8:	62 2f       	mov	r22, r18
    5eaa:	0e 94 68 2e 	call	0x5cd0	; 0x5cd0 <u8g_GetGlyph>
    5eae:	7c 01       	movw	r14, r24
    if ( g == NULL  )
    5eb0:	00 97       	sbiw	r24, 0x00	; 0
    5eb2:	09 f4       	brne	.+2      	; 0x5eb6 <u8g_draw_glyph+0x30>
    5eb4:	51 c0       	rjmp	.+162    	; 0x5f58 <u8g_draw_glyph+0xd2>


/* return the data start for a font and the glyph pointer */
static uint8_t *u8g_font_GetGlyphDataStart(const void *font, u8g_glyph_t g)
{
  return ((u8g_fntpgm_uint8_t *)g) + u8g_font_GetFontGlyphStructureSize(font);
    5eb6:	f6 01       	movw	r30, r12
    5eb8:	84 81       	ldd	r24, Z+4	; 0x04
    5eba:	95 81       	ldd	r25, Z+5	; 0x05
    5ebc:	0e 94 4e 2e 	call	0x5c9c	; 0x5c9c <u8g_font_GetFontGlyphStructureSize>
    5ec0:	b8 2e       	mov	r11, r24
    if ( g == NULL  )
      return 0;
    data = u8g_font_GetGlyphDataStart(u8g->font, g);
  }
  
  w = u8g->glyph_width;
    5ec2:	f6 01       	movw	r30, r12
    5ec4:	d3 89       	ldd	r29, Z+19	; 0x13
  h = u8g->glyph_height;
    5ec6:	c4 89       	ldd	r28, Z+20	; 0x14
  
  x += u8g->glyph_x;
    5ec8:	71 88       	ldd	r7, Z+17	; 0x11
    5eca:	71 0e       	add	r7, r17
  y -= u8g->glyph_y;
  y--;
  
  if ( u8g_IsBBXIntersection(u8g, x, y-h+1, w, h) == 0 )
    5ecc:	92 89       	ldd	r25, Z+18	; 0x12
    5ece:	69 1a       	sub	r6, r25
    5ed0:	96 2c       	mov	r9, r6
    5ed2:	9c 1a       	sub	r9, r28
    5ed4:	0c 2f       	mov	r16, r28
    5ed6:	2d 2f       	mov	r18, r29
    5ed8:	49 2d       	mov	r20, r9
    5eda:	67 2d       	mov	r22, r7
    5edc:	c6 01       	movw	r24, r12
    5ede:	0e 94 1d 34 	call	0x683a	; 0x683a <u8g_IsBBXIntersection>
    5ee2:	88 23       	and	r24, r24
    5ee4:	41 f1       	breq	.+80     	; 0x5f36 <u8g_draw_glyph+0xb0>
    return u8g->glyph_dx;

  /* now, w is reused as bytes per line */
  w += 7;
    5ee6:	67 e0       	ldi	r22, 0x07	; 7
    5ee8:	86 2e       	mov	r8, r22
    5eea:	8d 0e       	add	r8, r29
  w /= 8;
    5eec:	86 94       	lsr	r8
    5eee:	86 94       	lsr	r8
    5ef0:	86 94       	lsr	r8
  
  iy = y;
  iy -= h;
  iy++;

  for( j = 0; j < h; j++ )
    5ef2:	cc 23       	and	r28, r28
    5ef4:	01 f1       	breq	.+64     	; 0x5f36 <u8g_draw_glyph+0xb0>


/* return the data start for a font and the glyph pointer */
static uint8_t *u8g_font_GetGlyphDataStart(const void *font, u8g_glyph_t g)
{
  return ((u8g_fntpgm_uint8_t *)g) + u8g_font_GetFontGlyphStructureSize(font);
    5ef6:	eb 0c       	add	r14, r11
    5ef8:	f1 1c       	adc	r15, r1
    5efa:	aa 24       	eor	r10, r10
    5efc:	aa 94       	dec	r10
    5efe:	a8 0c       	add	r10, r8
    5f00:	b1 2c       	mov	r11, r1
    5f02:	ff ef       	ldi	r31, 0xFF	; 255
    5f04:	af 1a       	sub	r10, r31
    5f06:	bf 0a       	sbc	r11, r31
  iy++;

  for( j = 0; j < h; j++ )
  {
    ix = x;
    for( i = 0; i < w; i++ )
    5f08:	88 20       	and	r8, r8
    5f0a:	91 f0       	breq	.+36     	; 0x5f30 <u8g_draw_glyph+0xaa>
    5f0c:	17 2d       	mov	r17, r7
    5f0e:	e7 01       	movw	r28, r14
    {
      u8g_Draw8Pixel(u8g, ix, iy, 0, u8g_pgm_read(data));
    5f10:	fe 01       	movw	r30, r28
    5f12:	04 91       	lpm	r16, Z
    5f14:	20 e0       	ldi	r18, 0x00	; 0
    5f16:	49 2d       	mov	r20, r9
    5f18:	61 2f       	mov	r22, r17
    5f1a:	c6 01       	movw	r24, r12
    5f1c:	0e 94 c7 31 	call	0x638e	; 0x638e <u8g_Draw8Pixel>
      data++;
    5f20:	21 96       	adiw	r28, 0x01	; 1
      ix+=8;
    5f22:	18 5f       	subi	r17, 0xF8	; 248
    5f24:	8c 2f       	mov	r24, r28
    5f26:	8e 19       	sub	r24, r14
  iy++;

  for( j = 0; j < h; j++ )
  {
    ix = x;
    for( i = 0; i < w; i++ )
    5f28:	88 15       	cp	r24, r8
    5f2a:	90 f3       	brcs	.-28     	; 0x5f10 <u8g_draw_glyph+0x8a>
    5f2c:	ea 0c       	add	r14, r10
    5f2e:	fb 1c       	adc	r15, r11
    {
      u8g_Draw8Pixel(u8g, ix, iy, 0, u8g_pgm_read(data));
      data++;
      ix+=8;
    }
    iy++;
    5f30:	93 94       	inc	r9
  
  iy = y;
  iy -= h;
  iy++;

  for( j = 0; j < h; j++ )
    5f32:	96 10       	cpse	r9, r6
    5f34:	e9 cf       	rjmp	.-46     	; 0x5f08 <u8g_draw_glyph+0x82>
      data++;
      ix+=8;
    }
    iy++;
  }
  return u8g->glyph_dx;
    5f36:	f6 01       	movw	r30, r12
    5f38:	80 89       	ldd	r24, Z+16	; 0x10
}
    5f3a:	df 91       	pop	r29
    5f3c:	cf 91       	pop	r28
    5f3e:	1f 91       	pop	r17
    5f40:	0f 91       	pop	r16
    5f42:	ff 90       	pop	r15
    5f44:	ef 90       	pop	r14
    5f46:	df 90       	pop	r13
    5f48:	cf 90       	pop	r12
    5f4a:	bf 90       	pop	r11
    5f4c:	af 90       	pop	r10
    5f4e:	9f 90       	pop	r9
    5f50:	8f 90       	pop	r8
    5f52:	7f 90       	pop	r7
    5f54:	6f 90       	pop	r6
    5f56:	08 95       	ret
  u8g_uint_t ix, iy;

  {
    u8g_glyph_t g = u8g_GetGlyph(u8g, encoding);
    if ( g == NULL  )
      return 0;
    5f58:	80 e0       	ldi	r24, 0x00	; 0
    5f5a:	ef cf       	rjmp	.-34     	; 0x5f3a <u8g_draw_glyph+0xb4>

00005f5c <u8g_DrawStr>:
/*========================================================================*/
/* string drawing procedures */


u8g_uint_t u8g_DrawStr(u8g_t *u8g, u8g_uint_t x, u8g_uint_t y, const char *s)
{
    5f5c:	df 92       	push	r13
    5f5e:	ef 92       	push	r14
    5f60:	ff 92       	push	r15
    5f62:	0f 93       	push	r16
    5f64:	1f 93       	push	r17
    5f66:	cf 93       	push	r28
    5f68:	df 93       	push	r29
    5f6a:	8c 01       	movw	r16, r24
    5f6c:	f6 2e       	mov	r15, r22
    5f6e:	d4 2e       	mov	r13, r20
    5f70:	e9 01       	movw	r28, r18
  int8_t d;
  
  //u8g_uint_t u8g_GetStrWidth(u8g, s);
  //u8g_font_GetFontAscent(u8g->font)-u8g_font_GetFontDescent(u8g->font);
  
  y += u8g->font_calc_vref(u8g);
    5f72:	dc 01       	movw	r26, r24
    5f74:	55 96       	adiw	r26, 0x15	; 21
    5f76:	ed 91       	ld	r30, X+
    5f78:	fc 91       	ld	r31, X
    5f7a:	56 97       	sbiw	r26, 0x16	; 22
    5f7c:	09 95       	icall
    5f7e:	d8 0e       	add	r13, r24
  
  while( *s != '\0' )
    5f80:	28 81       	ld	r18, Y
    5f82:	22 23       	and	r18, r18
    5f84:	a9 f0       	breq	.+42     	; 0x5fb0 <u8g_DrawStr+0x54>
    5f86:	21 96       	adiw	r28, 0x01	; 1
/* string drawing procedures */


u8g_uint_t u8g_DrawStr(u8g_t *u8g, u8g_uint_t x, u8g_uint_t y, const char *s)
{
  u8g_uint_t t = 0;
    5f88:	e1 2c       	mov	r14, r1
  
  y += u8g->font_calc_vref(u8g);
  
  while( *s != '\0' )
  {
    d = u8g_draw_glyph(u8g, x, y, *s);
    5f8a:	4d 2d       	mov	r20, r13
    5f8c:	6f 2d       	mov	r22, r15
    5f8e:	c8 01       	movw	r24, r16
    5f90:	0e 94 43 2f 	call	0x5e86	; 0x5e86 <u8g_draw_glyph>
    x += d;
    5f94:	f8 0e       	add	r15, r24
    t += d;
    5f96:	e8 0e       	add	r14, r24
  //u8g_uint_t u8g_GetStrWidth(u8g, s);
  //u8g_font_GetFontAscent(u8g->font)-u8g_font_GetFontDescent(u8g->font);
  
  y += u8g->font_calc_vref(u8g);
  
  while( *s != '\0' )
    5f98:	29 91       	ld	r18, Y+
    5f9a:	21 11       	cpse	r18, r1
    5f9c:	f6 cf       	rjmp	.-20     	; 0x5f8a <u8g_DrawStr+0x2e>
    x += d;
    t += d;
    s++;
  }
  return t;
}
    5f9e:	8e 2d       	mov	r24, r14
    5fa0:	df 91       	pop	r29
    5fa2:	cf 91       	pop	r28
    5fa4:	1f 91       	pop	r17
    5fa6:	0f 91       	pop	r16
    5fa8:	ff 90       	pop	r15
    5faa:	ef 90       	pop	r14
    5fac:	df 90       	pop	r13
    5fae:	08 95       	ret
/* string drawing procedures */


u8g_uint_t u8g_DrawStr(u8g_t *u8g, u8g_uint_t x, u8g_uint_t y, const char *s)
{
  u8g_uint_t t = 0;
    5fb0:	e1 2c       	mov	r14, r1
    5fb2:	f5 cf       	rjmp	.-22     	; 0x5f9e <u8g_DrawStr+0x42>

00005fb4 <u8g_SetFontPosBaseline>:
  return 0;
}

void u8g_SetFontPosBaseline(u8g_t *u8g)
{
  u8g->font_calc_vref = u8g_font_calc_vref_font;
    5fb4:	28 e5       	ldi	r18, 0x58	; 88
    5fb6:	3e e2       	ldi	r19, 0x2E	; 46
    5fb8:	fc 01       	movw	r30, r24
    5fba:	36 8b       	std	Z+22, r19	; 0x16
    5fbc:	25 8b       	std	Z+21, r18	; 0x15
    5fbe:	08 95       	ret

00005fc0 <u8g_SetFont>:
    buf.y_max = cap_a;
  u8g_font_get_str_box_fill_args(u8g, s, &buf, x, y, width, height);
}

void u8g_SetFont(u8g_t *u8g, const u8g_fntpgm_uint8_t  *font)
{
    5fc0:	dc 01       	movw	r26, r24
  if ( u8g->font != font )
    5fc2:	14 96       	adiw	r26, 0x04	; 4
    5fc4:	8d 91       	ld	r24, X+
    5fc6:	9c 91       	ld	r25, X
    5fc8:	15 97       	sbiw	r26, 0x05	; 5
    5fca:	86 17       	cp	r24, r22
    5fcc:	97 07       	cpc	r25, r23
    5fce:	09 f4       	brne	.+2      	; 0x5fd2 <u8g_SetFont+0x12>
    5fd0:	3b c0       	rjmp	.+118    	; 0x6048 <u8g_SetFont+0x88>
  {
    u8g->font = font;
    5fd2:	15 96       	adiw	r26, 0x05	; 5
    5fd4:	7c 93       	st	X, r23
    5fd6:	6e 93       	st	-X, r22
    5fd8:	14 97       	sbiw	r26, 0x04	; 4
/* set ascent/descent for reference point calculation */

void u8g_UpdateRefHeight(u8g_t *u8g)
{
  uint16_t ls;
  if ( u8g->font == NULL )
    5fda:	61 15       	cp	r22, r1
    5fdc:	71 05       	cpc	r23, r1
    5fde:	71 f1       	breq	.+92     	; 0x603c <u8g_SetFont+0x7c>
    return;
  if ( u8g->font_height_mode == U8G_FONT_HEIGHT_MODE_TEXT )
    5fe0:	57 96       	adiw	r26, 0x17	; 23
    5fe2:	8c 91       	ld	r24, X
    5fe4:	57 97       	sbiw	r26, 0x17	; 23

/* removed NOINLINE, because it leads to smaller code, might also be faster */
//static uint8_t u8g_font_get_byte(const u8g_fntpgm_uint8_t *font, uint8_t offset) U8G_NOINLINE;
static uint8_t u8g_font_get_byte(const u8g_fntpgm_uint8_t *font, uint8_t offset)
{
  font += offset;
    5fe6:	fb 01       	movw	r30, r22
void u8g_UpdateRefHeight(u8g_t *u8g)
{
  uint16_t ls;
  if ( u8g->font == NULL )
    return;
  if ( u8g->font_height_mode == U8G_FONT_HEIGHT_MODE_TEXT )
    5fe8:	88 23       	and	r24, r24
    5fea:	79 f1       	breq	.+94     	; 0x604a <u8g_SetFont+0x8a>
  {
    u8g->font_ref_ascent = u8g_font_GetCapitalAHeight(u8g->font);
    u8g->font_ref_descent = u8g_font_GetLowerGDescent(u8g->font);
  }
  else if ( u8g->font_height_mode == U8G_FONT_HEIGHT_MODE_XTEXT )
    5fec:	81 30       	cpi	r24, 0x01	; 1
    5fee:	09 f4       	brne	.+2      	; 0x5ff2 <u8g_SetFont+0x32>
    5ff0:	37 c0       	rjmp	.+110    	; 0x6060 <u8g_SetFont+0xa0>

/* removed NOINLINE, because it leads to smaller code, might also be faster */
//static uint8_t u8g_font_get_byte(const u8g_fntpgm_uint8_t *font, uint8_t offset) U8G_NOINLINE;
static uint8_t u8g_font_get_byte(const u8g_fntpgm_uint8_t *font, uint8_t offset)
{
  font += offset;
    5ff2:	3d 96       	adiw	r30, 0x0d	; 13
  return u8g_pgm_read( (u8g_pgm_uint8_t *)font );  
    5ff4:	84 91       	lpm	r24, Z
    u8g->font_ref_ascent = u8g_font_GetFontXAscent(u8g->font);
    u8g->font_ref_descent = u8g_font_GetFontXDescent(u8g->font);
  }
  else
  {
    u8g->font_ref_ascent = u8g_font_GetFontAscent(u8g->font);
    5ff6:	58 96       	adiw	r26, 0x18	; 24
    5ff8:	8c 93       	st	X, r24
    5ffa:	58 97       	sbiw	r26, 0x18	; 24

/* removed NOINLINE, because it leads to smaller code, might also be faster */
//static uint8_t u8g_font_get_byte(const u8g_fntpgm_uint8_t *font, uint8_t offset) U8G_NOINLINE;
static uint8_t u8g_font_get_byte(const u8g_fntpgm_uint8_t *font, uint8_t offset)
{
  font += offset;
    5ffc:	31 96       	adiw	r30, 0x01	; 1
  return u8g_pgm_read( (u8g_pgm_uint8_t *)font );  
    5ffe:	64 91       	lpm	r22, Z
    u8g->font_ref_descent = u8g_font_GetFontXDescent(u8g->font);
  }
  else
  {
    u8g->font_ref_ascent = u8g_font_GetFontAscent(u8g->font);
    u8g->font_ref_descent = u8g_font_GetFontDescent(u8g->font);
    6000:	59 96       	adiw	r26, 0x19	; 25
    6002:	6c 93       	st	X, r22
    6004:	59 97       	sbiw	r26, 0x19	; 25
  }
  
  ls = u8g->font_ref_ascent - u8g->font_ref_descent;
    6006:	99 27       	eor	r25, r25
    6008:	87 fd       	sbrc	r24, 7
    600a:	90 95       	com	r25
    600c:	86 1b       	sub	r24, r22
    600e:	91 09       	sbc	r25, r1
    6010:	67 fd       	sbrc	r22, 7
    6012:	93 95       	inc	r25
  if ( u8g->font_line_spacing_factor != 64 )
    6014:	5a 96       	adiw	r26, 0x1a	; 26
    6016:	2c 91       	ld	r18, X
    6018:	5a 97       	sbiw	r26, 0x1a	; 26
    601a:	20 34       	cpi	r18, 0x40	; 64
    601c:	61 f0       	breq	.+24     	; 0x6036 <u8g_SetFont+0x76>
  {
    ls &= 255;
    ls *= u8g->font_line_spacing_factor;
    601e:	82 9f       	mul	r24, r18
    6020:	c0 01       	movw	r24, r0
    6022:	11 24       	eor	r1, r1
    ls >>= 6;
    6024:	00 24       	eor	r0, r0
    6026:	88 0f       	add	r24, r24
    6028:	99 1f       	adc	r25, r25
    602a:	00 1c       	adc	r0, r0
    602c:	88 0f       	add	r24, r24
    602e:	99 1f       	adc	r25, r25
    6030:	00 1c       	adc	r0, r0
    6032:	89 2f       	mov	r24, r25
    6034:	90 2d       	mov	r25, r0
  }
  u8g->line_spacing = ls;
    6036:	5b 96       	adiw	r26, 0x1b	; 27
    6038:	8c 93       	st	X, r24
    603a:	5b 97       	sbiw	r26, 0x1b	; 27
  return 0;
}

void u8g_SetFontPosBaseline(u8g_t *u8g)
{
  u8g->font_calc_vref = u8g_font_calc_vref_font;
    603c:	88 e5       	ldi	r24, 0x58	; 88
    603e:	9e e2       	ldi	r25, 0x2E	; 46
    6040:	56 96       	adiw	r26, 0x16	; 22
    6042:	9c 93       	st	X, r25
    6044:	8e 93       	st	-X, r24
    6046:	55 97       	sbiw	r26, 0x15	; 21
    6048:	08 95       	ret

/* removed NOINLINE, because it leads to smaller code, might also be faster */
//static uint8_t u8g_font_get_byte(const u8g_fntpgm_uint8_t *font, uint8_t offset) U8G_NOINLINE;
static uint8_t u8g_font_get_byte(const u8g_fntpgm_uint8_t *font, uint8_t offset)
{
  font += offset;
    604a:	35 96       	adiw	r30, 0x05	; 5
  return u8g_pgm_read( (u8g_pgm_uint8_t *)font );  
    604c:	84 91       	lpm	r24, Z
  uint16_t ls;
  if ( u8g->font == NULL )
    return;
  if ( u8g->font_height_mode == U8G_FONT_HEIGHT_MODE_TEXT )
  {
    u8g->font_ref_ascent = u8g_font_GetCapitalAHeight(u8g->font);
    604e:	58 96       	adiw	r26, 0x18	; 24
    6050:	8c 93       	st	X, r24
    6052:	58 97       	sbiw	r26, 0x18	; 24

/* removed NOINLINE, because it leads to smaller code, might also be faster */
//static uint8_t u8g_font_get_byte(const u8g_fntpgm_uint8_t *font, uint8_t offset) U8G_NOINLINE;
static uint8_t u8g_font_get_byte(const u8g_fntpgm_uint8_t *font, uint8_t offset)
{
  font += offset;
    6054:	37 96       	adiw	r30, 0x07	; 7
  return u8g_pgm_read( (u8g_pgm_uint8_t *)font );  
    6056:	64 91       	lpm	r22, Z
  if ( u8g->font == NULL )
    return;
  if ( u8g->font_height_mode == U8G_FONT_HEIGHT_MODE_TEXT )
  {
    u8g->font_ref_ascent = u8g_font_GetCapitalAHeight(u8g->font);
    u8g->font_ref_descent = u8g_font_GetLowerGDescent(u8g->font);
    6058:	59 96       	adiw	r26, 0x19	; 25
    605a:	6c 93       	st	X, r22
    605c:	59 97       	sbiw	r26, 0x19	; 25
    605e:	d3 cf       	rjmp	.-90     	; 0x6006 <u8g_SetFont+0x46>

/* removed NOINLINE, because it leads to smaller code, might also be faster */
//static uint8_t u8g_font_get_byte(const u8g_fntpgm_uint8_t *font, uint8_t offset) U8G_NOINLINE;
static uint8_t u8g_font_get_byte(const u8g_fntpgm_uint8_t *font, uint8_t offset)
{
  font += offset;
    6060:	3f 96       	adiw	r30, 0x0f	; 15
    6062:	c8 cf       	rjmp	.-112    	; 0x5ff4 <u8g_SetFont+0x34>

00006064 <u8g_DrawLine>:
*/

#include "u8g.h"

void u8g_DrawLine(u8g_t *u8g, u8g_uint_t x1, u8g_uint_t y1, u8g_uint_t x2, u8g_uint_t y2)
{
    6064:	bf 92       	push	r11
    6066:	cf 92       	push	r12
    6068:	df 92       	push	r13
    606a:	ef 92       	push	r14
    606c:	ff 92       	push	r15
    606e:	0f 93       	push	r16
    6070:	1f 93       	push	r17
    6072:	cf 93       	push	r28
    6074:	df 93       	push	r29
    6076:	ec 01       	movw	r28, r24
    6078:	16 2f       	mov	r17, r22
    607a:	e4 2e       	mov	r14, r20
    607c:	d2 2e       	mov	r13, r18

  uint8_t swapxy = 0;
  
  /* no BBX intersection check at the moment, should be added... */

  if ( x1 > x2 ) dx = x1-x2; else dx = x2-x1;
    607e:	26 17       	cp	r18, r22
    6080:	08 f0       	brcs	.+2      	; 0x6084 <u8g_DrawLine+0x20>
    6082:	5c c0       	rjmp	.+184    	; 0x613c <u8g_DrawLine+0xd8>
    6084:	c6 2e       	mov	r12, r22
    6086:	c2 1a       	sub	r12, r18
  if ( y1 > y2 ) dy = y1-y2; else dy = y2-y1;
    6088:	0e 15       	cp	r16, r14
    608a:	08 f0       	brcs	.+2      	; 0x608e <u8g_DrawLine+0x2a>
    608c:	54 c0       	rjmp	.+168    	; 0x6136 <u8g_DrawLine+0xd2>
    608e:	be 2c       	mov	r11, r14
    6090:	b0 1a       	sub	r11, r16

  if ( dy > dx ) 
    6092:	cb 14       	cp	r12, r11
    6094:	08 f4       	brcc	.+2      	; 0x6098 <u8g_DrawLine+0x34>
    6096:	45 c0       	rjmp	.+138    	; 0x6122 <u8g_DrawLine+0xbe>
    6098:	8b 2d       	mov	r24, r11
    609a:	bc 2c       	mov	r11, r12
    609c:	c8 2e       	mov	r12, r24
  u8g_uint_t x,y;
  u8g_uint_t dx, dy;
  u8g_int_t err;
  u8g_int_t ystep;

  uint8_t swapxy = 0;
    609e:	80 e0       	ldi	r24, 0x00	; 0
    swapxy = 1;
    tmp = dx; dx =dy; dy = tmp;
    tmp = x1; x1 =y1; y1 = tmp;
    tmp = x2; x2 =y2; y2 = tmp;
  }
  if ( x1 > x2 ) 
    60a0:	d1 16       	cp	r13, r17
    60a2:	30 f4       	brcc	.+12     	; 0x60b0 <u8g_DrawLine+0x4c>
    60a4:	9e 2d       	mov	r25, r14
  {
    tmp = x1; x1 =x2; x2 = tmp;
    tmp = y1; y1 =y2; y2 = tmp;
    60a6:	e0 2e       	mov	r14, r16
    60a8:	09 2f       	mov	r16, r25
    60aa:	91 2f       	mov	r25, r17
    60ac:	1d 2d       	mov	r17, r13
    60ae:	d9 2e       	mov	r13, r25
  }
  err = dx >> 1;
    60b0:	fb 2c       	mov	r15, r11
    60b2:	f6 94       	lsr	r15
  if ( y2 > y1 ) ystep = 1; else ystep = -1;
    60b4:	e0 16       	cp	r14, r16
    60b6:	e8 f5       	brcc	.+122    	; 0x6132 <u8g_DrawLine+0xce>
    60b8:	01 e0       	ldi	r16, 0x01	; 1
  y = y1;
  for( x = x1; x <= x2; x++ )
    60ba:	d1 16       	cp	r13, r17
    60bc:	d0 f0       	brcs	.+52     	; 0x60f2 <u8g_DrawLine+0x8e>
    60be:	88 23       	and	r24, r24
    60c0:	39 f1       	breq	.+78     	; 0x6110 <u8g_DrawLine+0xac>
  {
    if ( swapxy == 0 ) 
      u8g_DrawPixel(u8g, x, y); 
    else 
      u8g_DrawPixel(u8g, y, x); 
    60c2:	41 2f       	mov	r20, r17
    60c4:	6e 2d       	mov	r22, r14
    60c6:	ce 01       	movw	r24, r28
    60c8:	0e 94 b9 31 	call	0x6372	; 0x6372 <u8g_DrawPixel>
    err -= (uint8_t)dy;
    60cc:	fc 18       	sub	r15, r12
    if ( err < 0 ) 
    60ce:	f7 fc       	sbrc	r15, 7
    60d0:	0b c0       	rjmp	.+22     	; 0x60e8 <u8g_DrawLine+0x84>
    tmp = y1; y1 =y2; y2 = tmp;
  }
  err = dx >> 1;
  if ( y2 > y1 ) ystep = 1; else ystep = -1;
  y = y1;
  for( x = x1; x <= x2; x++ )
    60d2:	1f 5f       	subi	r17, 0xFF	; 255
    60d4:	d1 16       	cp	r13, r17
    60d6:	68 f0       	brcs	.+26     	; 0x60f2 <u8g_DrawLine+0x8e>
  {
    if ( swapxy == 0 ) 
      u8g_DrawPixel(u8g, x, y); 
    else 
      u8g_DrawPixel(u8g, y, x); 
    60d8:	41 2f       	mov	r20, r17
    60da:	6e 2d       	mov	r22, r14
    60dc:	ce 01       	movw	r24, r28
    60de:	0e 94 b9 31 	call	0x6372	; 0x6372 <u8g_DrawPixel>
    err -= (uint8_t)dy;
    60e2:	fc 18       	sub	r15, r12
    if ( err < 0 ) 
    60e4:	f7 fe       	sbrs	r15, 7
    60e6:	f5 cf       	rjmp	.-22     	; 0x60d2 <u8g_DrawLine+0x6e>
    {
      y += (u8g_uint_t)ystep;
    60e8:	e0 0e       	add	r14, r16
      err += (u8g_uint_t)dx;
    60ea:	fb 0c       	add	r15, r11
    tmp = y1; y1 =y2; y2 = tmp;
  }
  err = dx >> 1;
  if ( y2 > y1 ) ystep = 1; else ystep = -1;
  y = y1;
  for( x = x1; x <= x2; x++ )
    60ec:	1f 5f       	subi	r17, 0xFF	; 255
    60ee:	d1 16       	cp	r13, r17
    60f0:	98 f7       	brcc	.-26     	; 0x60d8 <u8g_DrawLine+0x74>
    {
      y += (u8g_uint_t)ystep;
      err += (u8g_uint_t)dx;
    }
  }
}
    60f2:	df 91       	pop	r29
    60f4:	cf 91       	pop	r28
    60f6:	1f 91       	pop	r17
    60f8:	0f 91       	pop	r16
    60fa:	ff 90       	pop	r15
    60fc:	ef 90       	pop	r14
    60fe:	df 90       	pop	r13
    6100:	cf 90       	pop	r12
    6102:	bf 90       	pop	r11
    6104:	08 95       	ret
    else 
      u8g_DrawPixel(u8g, y, x); 
    err -= (uint8_t)dy;
    if ( err < 0 ) 
    {
      y += (u8g_uint_t)ystep;
    6106:	e0 0e       	add	r14, r16
      err += (u8g_uint_t)dx;
    6108:	fb 0c       	add	r15, r11
    tmp = y1; y1 =y2; y2 = tmp;
  }
  err = dx >> 1;
  if ( y2 > y1 ) ystep = 1; else ystep = -1;
  y = y1;
  for( x = x1; x <= x2; x++ )
    610a:	1f 5f       	subi	r17, 0xFF	; 255
    610c:	d1 16       	cp	r13, r17
    610e:	88 f3       	brcs	.-30     	; 0x60f2 <u8g_DrawLine+0x8e>
  {
    if ( swapxy == 0 ) 
      u8g_DrawPixel(u8g, x, y); 
    6110:	4e 2d       	mov	r20, r14
    6112:	61 2f       	mov	r22, r17
    6114:	ce 01       	movw	r24, r28
    6116:	0e 94 b9 31 	call	0x6372	; 0x6372 <u8g_DrawPixel>
    else 
      u8g_DrawPixel(u8g, y, x); 
    err -= (uint8_t)dy;
    611a:	fc 18       	sub	r15, r12
    if ( err < 0 ) 
    611c:	f7 fe       	sbrs	r15, 7
    611e:	f5 cf       	rjmp	.-22     	; 0x610a <u8g_DrawLine+0xa6>
    6120:	f2 cf       	rjmp	.-28     	; 0x6106 <u8g_DrawLine+0xa2>
    6122:	8d 2d       	mov	r24, r13
    6124:	d0 2e       	mov	r13, r16
    6126:	08 2f       	mov	r16, r24
    6128:	81 2f       	mov	r24, r17
    612a:	1e 2d       	mov	r17, r14
    612c:	e8 2e       	mov	r14, r24
  if ( x1 > x2 ) dx = x1-x2; else dx = x2-x1;
  if ( y1 > y2 ) dy = y1-y2; else dy = y2-y1;

  if ( dy > dx ) 
  {
    swapxy = 1;
    612e:	81 e0       	ldi	r24, 0x01	; 1
    6130:	b7 cf       	rjmp	.-146    	; 0x60a0 <u8g_DrawLine+0x3c>
    6132:	0f ef       	ldi	r16, 0xFF	; 255
    6134:	c2 cf       	rjmp	.-124    	; 0x60ba <u8g_DrawLine+0x56>
  uint8_t swapxy = 0;
  
  /* no BBX intersection check at the moment, should be added... */

  if ( x1 > x2 ) dx = x1-x2; else dx = x2-x1;
  if ( y1 > y2 ) dy = y1-y2; else dy = y2-y1;
    6136:	b0 2e       	mov	r11, r16
    6138:	be 18       	sub	r11, r14
    613a:	ab cf       	rjmp	.-170    	; 0x6092 <u8g_DrawLine+0x2e>

  uint8_t swapxy = 0;
  
  /* no BBX intersection check at the moment, should be added... */

  if ( x1 > x2 ) dx = x1-x2; else dx = x2-x1;
    613c:	c2 2e       	mov	r12, r18
    613e:	c6 1a       	sub	r12, r22
    6140:	a3 cf       	rjmp	.-186    	; 0x6088 <u8g_DrawLine+0x24>

00006142 <u8g_InitHWSPI>:
  /* issue 146 */
  return u8g_Begin(u8g);
}

uint8_t u8g_InitHWSPI(u8g_t *u8g, u8g_dev_t *dev, uint8_t cs, uint8_t a0, uint8_t reset)
{
    6142:	bf 92       	push	r11
    6144:	cf 92       	push	r12
    6146:	df 92       	push	r13
    6148:	ef 92       	push	r14
    614a:	ff 92       	push	r15
    614c:	0f 93       	push	r16
    614e:	1f 93       	push	r17
    6150:	cf 93       	push	r28
    6152:	df 93       	push	r29
    6154:	00 d0       	rcall	.+0      	; 0x6156 <u8g_InitHWSPI+0x14>
    6156:	cd b7       	in	r28, 0x3d	; 61
    6158:	de b7       	in	r29, 0x3e	; 62
    615a:	7c 01       	movw	r14, r24
    615c:	6b 01       	movw	r12, r22
    615e:	b4 2e       	mov	r11, r20
  u8g_call_dev_fn(u8g, u8g->dev, U8G_DEV_MSG_GET_PAGE_BOX, &(u8g->current_page));
}

static void u8g_init_data(u8g_t *u8g)
{
  u8g->font = NULL;
    6160:	dc 01       	movw	r26, r24
    6162:	15 96       	adiw	r26, 0x05	; 5
    6164:	1c 92       	st	X, r1
    6166:	1e 92       	st	-X, r1
    6168:	14 97       	sbiw	r26, 0x04	; 4
  u8g->cursor_font = NULL;
    616a:	17 96       	adiw	r26, 0x07	; 7
    616c:	1c 92       	st	X, r1
    616e:	1e 92       	st	-X, r1
    6170:	16 97       	sbiw	r26, 0x06	; 6
  u8g->cursor_bg_color = 0;
    6172:	19 96       	adiw	r26, 0x09	; 9
    6174:	1c 92       	st	X, r1
    6176:	19 97       	sbiw	r26, 0x09	; 9
  u8g->cursor_fg_color = 1;
    6178:	11 e0       	ldi	r17, 0x01	; 1
    617a:	18 96       	adiw	r26, 0x08	; 8
    617c:	1c 93       	st	X, r17
    617e:	18 97       	sbiw	r26, 0x08	; 8
  u8g->cursor_encoding = 34;
    6180:	82 e2       	ldi	r24, 0x22	; 34
    6182:	1a 96       	adiw	r26, 0x0a	; 10
    6184:	8c 93       	st	X, r24
    6186:	1a 97       	sbiw	r26, 0x0a	; 10
  u8g->cursor_fn = (u8g_draw_cursor_fn)0;
    6188:	1f 96       	adiw	r26, 0x0f	; 15
    618a:	1c 92       	st	X, r1
    618c:	1e 92       	st	-X, r1
    618e:	1e 97       	sbiw	r26, 0x0e	; 14
    6190:	4e e0       	ldi	r20, 0x0E	; 14
    6192:	50 e0       	ldi	r21, 0x00	; 0
    6194:	6f ef       	ldi	r22, 0xFF	; 255
    6196:	7f ef       	ldi	r23, 0xFF	; 255
    6198:	c7 01       	movw	r24, r14
    619a:	83 96       	adiw	r24, 0x23	; 35
    619c:	2a 83       	std	Y+2, r18	; 0x02
    619e:	0e 94 fb 35 	call	0x6bf6	; 0x6bf6 <memset>
  u8g_call_dev_fn(u8g, u8g->dev, U8G_DEV_MSG_SET_COLOR_ENTRY, &irgb);
}

void u8g_SetColorIndex(u8g_t *u8g, uint8_t idx)
{
  u8g->arg_pixel.color = idx;
    61a2:	f7 01       	movw	r30, r14
    61a4:	10 a3       	std	Z+32, r17	; 0x20
  }
#endif
  
  u8g_SetColorIndex(u8g, 1);

  u8g_SetFontPosBaseline(u8g);
    61a6:	c7 01       	movw	r24, r14
    61a8:	0e 94 da 2f 	call	0x5fb4	; 0x5fb4 <u8g_SetFontPosBaseline>
  
  u8g->font_height_mode = U8G_FONT_HEIGHT_MODE_XTEXT;
    61ac:	d7 01       	movw	r26, r14
    61ae:	57 96       	adiw	r26, 0x17	; 23
    61b0:	1c 93       	st	X, r17
    61b2:	57 97       	sbiw	r26, 0x17	; 23
  u8g->font_ref_ascent = 0;
    61b4:	58 96       	adiw	r26, 0x18	; 24
    61b6:	1c 92       	st	X, r1
    61b8:	58 97       	sbiw	r26, 0x18	; 24
  u8g->font_ref_descent = 0;
    61ba:	59 96       	adiw	r26, 0x19	; 25
    61bc:	1c 92       	st	X, r1
    61be:	59 97       	sbiw	r26, 0x19	; 25
  u8g->font_line_spacing_factor = 64;           /* 64 = 1.0, 77 = 1.2 line spacing factor */
    61c0:	80 e4       	ldi	r24, 0x40	; 64
    61c2:	5a 96       	adiw	r26, 0x1a	; 26
    61c4:	8c 93       	st	X, r24
    61c6:	5a 97       	sbiw	r26, 0x1a	; 26
  u8g->line_spacing = 0;
    61c8:	5b 96       	adiw	r26, 0x1b	; 27
    61ca:	1c 92       	st	X, r1
    61cc:	5b 97       	sbiw	r26, 0x1b	; 27
  
  u8g->state_cb = u8g_state_dummy_cb;
    61ce:	8c e1       	ldi	r24, 0x1C	; 28
    61d0:	94 e3       	ldi	r25, 0x34	; 52
    61d2:	d2 96       	adiw	r26, 0x32	; 50
    61d4:	9c 93       	st	X, r25
    61d6:	8e 93       	st	-X, r24
    61d8:	d1 97       	sbiw	r26, 0x31	; 49

uint8_t u8g_InitHWSPI(u8g_t *u8g, u8g_dev_t *dev, uint8_t cs, uint8_t a0, uint8_t reset)
{
  /* fill data structure with some suitable values */
  u8g_init_data(u8g);
  u8g->dev = dev;
    61da:	13 96       	adiw	r26, 0x03	; 3
    61dc:	dc 92       	st	X, r13
    61de:	ce 92       	st	-X, r12
    61e0:	12 97       	sbiw	r26, 0x02	; 2
  
  
  /* assign user pins */
  u8g->pin_list[U8G_PI_CS] = cs;
    61e2:	95 96       	adiw	r26, 0x25	; 37
    61e4:	bc 92       	st	X, r11
    61e6:	95 97       	sbiw	r26, 0x25	; 37
  u8g->pin_list[U8G_PI_A0] = a0;
    61e8:	2a 81       	ldd	r18, Y+2	; 0x02
    61ea:	94 96       	adiw	r26, 0x24	; 36
    61ec:	2c 93       	st	X, r18
    61ee:	94 97       	sbiw	r26, 0x24	; 36
  u8g->pin_list[U8G_PI_RESET] = reset;
    61f0:	93 96       	adiw	r26, 0x23	; 35
    61f2:	0c 93       	st	X, r16
/*====================================================================*/

uint8_t u8g_InitLL(u8g_t *u8g, u8g_dev_t *dev)
{
  uint8_t r;
  u8g->state_cb(U8G_STATE_MSG_BACKUP_ENV);
    61f4:	82 e0       	ldi	r24, 0x02	; 2
    61f6:	0e 94 1c 34 	call	0x6838	; 0x6838 <u8g_state_dummy_cb>
#include <stddef.h>
#include "u8g.h"

uint8_t u8g_call_dev_fn(u8g_t *u8g, u8g_dev_t *dev, uint8_t msg, void *arg)
{
  return dev->dev_fn(u8g, dev, msg, arg); 
    61fa:	d6 01       	movw	r26, r12
    61fc:	ed 91       	ld	r30, X+
    61fe:	fc 91       	ld	r31, X
    6200:	20 e0       	ldi	r18, 0x00	; 0
    6202:	30 e0       	ldi	r19, 0x00	; 0
    6204:	4a e0       	ldi	r20, 0x0A	; 10
    6206:	b6 01       	movw	r22, r12
    6208:	c7 01       	movw	r24, r14
    620a:	09 95       	icall
    620c:	18 2f       	mov	r17, r24
uint8_t u8g_InitLL(u8g_t *u8g, u8g_dev_t *dev)
{
  uint8_t r;
  u8g->state_cb(U8G_STATE_MSG_BACKUP_ENV);
  r =  u8g_call_dev_fn(u8g, dev, U8G_DEV_MSG_INIT, NULL);
  u8g->state_cb(U8G_STATE_MSG_BACKUP_U8G);
    620e:	d7 01       	movw	r26, r14
    6210:	d1 96       	adiw	r26, 0x31	; 49
    6212:	ed 91       	ld	r30, X+
    6214:	fc 91       	ld	r31, X
    6216:	d2 97       	sbiw	r26, 0x32	; 50
    6218:	83 e0       	ldi	r24, 0x03	; 3
    621a:	09 95       	icall
  u8g->state_cb(U8G_STATE_MSG_RESTORE_ENV);
    621c:	d7 01       	movw	r26, r14
    621e:	d1 96       	adiw	r26, 0x31	; 49
    6220:	ed 91       	ld	r30, X+
    6222:	fc 91       	ld	r31, X
    6224:	d2 97       	sbiw	r26, 0x32	; 50
    6226:	80 e0       	ldi	r24, 0x00	; 0
    6228:	09 95       	icall
}

uint8_t u8g_Begin(u8g_t *u8g)
{
  /* call and init low level driver and com device */
  if ( u8g_InitLL(u8g, u8g->dev) == 0 )
    622a:	11 23       	and	r17, r17
    622c:	a9 f1       	breq	.+106    	; 0x6298 <u8g_InitHWSPI+0x156>

/*====================================================================*/

void u8g_UpdateDimension(u8g_t *u8g)
{
  u8g->width = u8g_GetWidthLL(u8g, u8g->dev);
    622e:	f7 01       	movw	r30, r14
    6230:	62 81       	ldd	r22, Z+2	; 0x02
    6232:	73 81       	ldd	r23, Z+3	; 0x03
#include <stddef.h>
#include "u8g.h"

uint8_t u8g_call_dev_fn(u8g_t *u8g, u8g_dev_t *dev, uint8_t msg, void *arg)
{
  return dev->dev_fn(u8g, dev, msg, arg); 
    6234:	db 01       	movw	r26, r22
    6236:	ed 91       	ld	r30, X+
    6238:	fc 91       	ld	r31, X
    623a:	9e 01       	movw	r18, r28
    623c:	2f 5f       	subi	r18, 0xFF	; 255
    623e:	3f 4f       	sbci	r19, 0xFF	; 255
    6240:	46 e4       	ldi	r20, 0x46	; 70
    6242:	c7 01       	movw	r24, r14
    6244:	09 95       	icall

u8g_uint_t u8g_GetWidthLL(u8g_t *u8g, u8g_dev_t *dev)
{
  u8g_uint_t r;
  u8g_call_dev_fn(u8g, dev, U8G_DEV_MSG_GET_WIDTH, &r);
  return r;
    6246:	89 81       	ldd	r24, Y+1	; 0x01

/*====================================================================*/

void u8g_UpdateDimension(u8g_t *u8g)
{
  u8g->width = u8g_GetWidthLL(u8g, u8g->dev);
    6248:	f7 01       	movw	r30, r14
    624a:	80 83       	st	Z, r24
  u8g->height = u8g_GetHeightLL(u8g, u8g->dev);
    624c:	62 81       	ldd	r22, Z+2	; 0x02
    624e:	73 81       	ldd	r23, Z+3	; 0x03
#include <stddef.h>
#include "u8g.h"

uint8_t u8g_call_dev_fn(u8g_t *u8g, u8g_dev_t *dev, uint8_t msg, void *arg)
{
  return dev->dev_fn(u8g, dev, msg, arg); 
    6250:	db 01       	movw	r26, r22
    6252:	ed 91       	ld	r30, X+
    6254:	fc 91       	ld	r31, X
    6256:	9e 01       	movw	r18, r28
    6258:	2f 5f       	subi	r18, 0xFF	; 255
    625a:	3f 4f       	sbci	r19, 0xFF	; 255
    625c:	47 e4       	ldi	r20, 0x47	; 71
    625e:	c7 01       	movw	r24, r14
    6260:	09 95       	icall

u8g_uint_t u8g_GetHeightLL(u8g_t *u8g, u8g_dev_t *dev)
{       
  u8g_uint_t r;
  u8g_call_dev_fn(u8g, dev, U8G_DEV_MSG_GET_HEIGHT, &r);
  return r;
    6262:	89 81       	ldd	r24, Y+1	; 0x01
/*====================================================================*/

void u8g_UpdateDimension(u8g_t *u8g)
{
  u8g->width = u8g_GetWidthLL(u8g, u8g->dev);
  u8g->height = u8g_GetHeightLL(u8g, u8g->dev);
    6264:	f7 01       	movw	r30, r14
    6266:	81 83       	std	Z+1, r24	; 0x01
  u8g->mode = u8g_GetModeLL(u8g, u8g->dev);
    6268:	62 81       	ldd	r22, Z+2	; 0x02
    626a:	73 81       	ldd	r23, Z+3	; 0x03
#include <stddef.h>
#include "u8g.h"

uint8_t u8g_call_dev_fn(u8g_t *u8g, u8g_dev_t *dev, uint8_t msg, void *arg)
{
  return dev->dev_fn(u8g, dev, msg, arg); 
    626c:	db 01       	movw	r26, r22
    626e:	ed 91       	ld	r30, X+
    6270:	fc 91       	ld	r31, X
    6272:	20 e0       	ldi	r18, 0x00	; 0
    6274:	30 e0       	ldi	r19, 0x00	; 0
    6276:	48 e4       	ldi	r20, 0x48	; 72
    6278:	c7 01       	movw	r24, r14
    627a:	09 95       	icall

void u8g_UpdateDimension(u8g_t *u8g)
{
  u8g->width = u8g_GetWidthLL(u8g, u8g->dev);
  u8g->height = u8g_GetHeightLL(u8g, u8g->dev);
  u8g->mode = u8g_GetModeLL(u8g, u8g->dev);
    627c:	f7 01       	movw	r30, r14
    627e:	83 87       	std	Z+11, r24	; 0x0b
  /* 9 Dec 2012: u8g_scale.c requires update of current page */
  u8g_call_dev_fn(u8g, u8g->dev, U8G_DEV_MSG_GET_PAGE_BOX, &(u8g->current_page));
    6280:	62 81       	ldd	r22, Z+2	; 0x02
    6282:	73 81       	ldd	r23, Z+3	; 0x03
    6284:	97 01       	movw	r18, r14
    6286:	2d 5c       	subi	r18, 0xCD	; 205
    6288:	3f 4f       	sbci	r19, 0xFF	; 255
#include <stddef.h>
#include "u8g.h"

uint8_t u8g_call_dev_fn(u8g_t *u8g, u8g_dev_t *dev, uint8_t msg, void *arg)
{
  return dev->dev_fn(u8g, dev, msg, arg); 
    628a:	db 01       	movw	r26, r22
    628c:	ed 91       	ld	r30, X+
    628e:	fc 91       	ld	r31, X
    6290:	47 e1       	ldi	r20, 0x17	; 23
    6292:	c7 01       	movw	r24, r14
    6294:	09 95       	icall
  /* call and init low level driver and com device */
  if ( u8g_InitLL(u8g, u8g->dev) == 0 )
    return 0;
  /* fetch width and height from the low level */
  u8g_UpdateDimension(u8g);
  return 1;
    6296:	11 e0       	ldi	r17, 0x01	; 1
  u8g->pin_list[U8G_PI_CS] = cs;
  u8g->pin_list[U8G_PI_A0] = a0;
  u8g->pin_list[U8G_PI_RESET] = reset;
  
  return u8g_Begin(u8g);
}
    6298:	81 2f       	mov	r24, r17
    629a:	0f 90       	pop	r0
    629c:	0f 90       	pop	r0
    629e:	df 91       	pop	r29
    62a0:	cf 91       	pop	r28
    62a2:	1f 91       	pop	r17
    62a4:	0f 91       	pop	r16
    62a6:	ff 90       	pop	r15
    62a8:	ef 90       	pop	r14
    62aa:	df 90       	pop	r13
    62ac:	cf 90       	pop	r12
    62ae:	bf 90       	pop	r11
    62b0:	08 95       	ret

000062b2 <u8g_FirstPage>:
  return u8g_Begin(u8g);
}
#endif /* defined(U8G_WITH_PINLIST)  */

void u8g_FirstPage(u8g_t *u8g)
{
    62b2:	0f 93       	push	r16
    62b4:	1f 93       	push	r17
    62b6:	cf 93       	push	r28
    62b8:	df 93       	push	r29
    62ba:	ec 01       	movw	r28, r24
  u8g_FirstPageLL(u8g, u8g->dev);
    62bc:	0a 81       	ldd	r16, Y+2	; 0x02
    62be:	1b 81       	ldd	r17, Y+3	; 0x03
  return r;
}

void u8g_FirstPageLL(u8g_t *u8g, u8g_dev_t *dev)
{  
  u8g->state_cb(U8G_STATE_MSG_BACKUP_ENV);
    62c0:	e9 a9       	ldd	r30, Y+49	; 0x31
    62c2:	fa a9       	ldd	r31, Y+50	; 0x32
    62c4:	82 e0       	ldi	r24, 0x02	; 2
    62c6:	09 95       	icall
  u8g->state_cb(U8G_STATE_MSG_RESTORE_U8G);
    62c8:	e9 a9       	ldd	r30, Y+49	; 0x31
    62ca:	fa a9       	ldd	r31, Y+50	; 0x32
    62cc:	81 e0       	ldi	r24, 0x01	; 1
    62ce:	09 95       	icall
#include <stddef.h>
#include "u8g.h"

uint8_t u8g_call_dev_fn(u8g_t *u8g, u8g_dev_t *dev, uint8_t msg, void *arg)
{
  return dev->dev_fn(u8g, dev, msg, arg); 
    62d0:	d8 01       	movw	r26, r16
    62d2:	ed 91       	ld	r30, X+
    62d4:	fc 91       	ld	r31, X
    62d6:	20 e0       	ldi	r18, 0x00	; 0
    62d8:	30 e0       	ldi	r19, 0x00	; 0
    62da:	44 e1       	ldi	r20, 0x14	; 20
    62dc:	b8 01       	movw	r22, r16
    62de:	ce 01       	movw	r24, r28
    62e0:	09 95       	icall
void u8g_FirstPageLL(u8g_t *u8g, u8g_dev_t *dev)
{  
  u8g->state_cb(U8G_STATE_MSG_BACKUP_ENV);
  u8g->state_cb(U8G_STATE_MSG_RESTORE_U8G);
  u8g_call_dev_fn(u8g, dev, U8G_DEV_MSG_PAGE_FIRST, NULL);
  u8g_call_dev_fn(u8g, dev, U8G_DEV_MSG_GET_PAGE_BOX, &(u8g->current_page));
    62e2:	9e 01       	movw	r18, r28
    62e4:	2d 5c       	subi	r18, 0xCD	; 205
    62e6:	3f 4f       	sbci	r19, 0xFF	; 255
#include <stddef.h>
#include "u8g.h"

uint8_t u8g_call_dev_fn(u8g_t *u8g, u8g_dev_t *dev, uint8_t msg, void *arg)
{
  return dev->dev_fn(u8g, dev, msg, arg); 
    62e8:	d8 01       	movw	r26, r16
    62ea:	ed 91       	ld	r30, X+
    62ec:	fc 91       	ld	r31, X
    62ee:	47 e1       	ldi	r20, 0x17	; 23
    62f0:	b8 01       	movw	r22, r16
    62f2:	ce 01       	movw	r24, r28
    62f4:	09 95       	icall
{  
  u8g->state_cb(U8G_STATE_MSG_BACKUP_ENV);
  u8g->state_cb(U8G_STATE_MSG_RESTORE_U8G);
  u8g_call_dev_fn(u8g, dev, U8G_DEV_MSG_PAGE_FIRST, NULL);
  u8g_call_dev_fn(u8g, dev, U8G_DEV_MSG_GET_PAGE_BOX, &(u8g->current_page));
  u8g->state_cb(U8G_STATE_MSG_RESTORE_ENV);
    62f6:	e9 a9       	ldd	r30, Y+49	; 0x31
    62f8:	fa a9       	ldd	r31, Y+50	; 0x32
    62fa:	80 e0       	ldi	r24, 0x00	; 0
#endif /* defined(U8G_WITH_PINLIST)  */

void u8g_FirstPage(u8g_t *u8g)
{
  u8g_FirstPageLL(u8g, u8g->dev);
}
    62fc:	df 91       	pop	r29
    62fe:	cf 91       	pop	r28
    6300:	1f 91       	pop	r17
    6302:	0f 91       	pop	r16
{  
  u8g->state_cb(U8G_STATE_MSG_BACKUP_ENV);
  u8g->state_cb(U8G_STATE_MSG_RESTORE_U8G);
  u8g_call_dev_fn(u8g, dev, U8G_DEV_MSG_PAGE_FIRST, NULL);
  u8g_call_dev_fn(u8g, dev, U8G_DEV_MSG_GET_PAGE_BOX, &(u8g->current_page));
  u8g->state_cb(U8G_STATE_MSG_RESTORE_ENV);
    6304:	09 94       	ijmp

00006306 <u8g_NextPage>:
{
  u8g_FirstPageLL(u8g, u8g->dev);
}

uint8_t u8g_NextPage(u8g_t *u8g)
{
    6306:	ff 92       	push	r15
    6308:	0f 93       	push	r16
    630a:	1f 93       	push	r17
    630c:	cf 93       	push	r28
    630e:	df 93       	push	r29
    6310:	ec 01       	movw	r28, r24
  if  ( u8g->cursor_fn != (u8g_draw_cursor_fn)0 )
    6312:	ee 85       	ldd	r30, Y+14	; 0x0e
    6314:	ff 85       	ldd	r31, Y+15	; 0x0f
    6316:	30 97       	sbiw	r30, 0x00	; 0
    6318:	09 f0       	breq	.+2      	; 0x631c <u8g_NextPage+0x16>
  {
    u8g->cursor_fn(u8g);
    631a:	09 95       	icall
  }
  return u8g_NextPageLL(u8g, u8g->dev);
    631c:	0a 81       	ldd	r16, Y+2	; 0x02
    631e:	1b 81       	ldd	r17, Y+3	; 0x03
}

uint8_t u8g_NextPageLL(u8g_t *u8g, u8g_dev_t *dev)
{  
  uint8_t r;
  u8g->state_cb(U8G_STATE_MSG_BACKUP_ENV);
    6320:	e9 a9       	ldd	r30, Y+49	; 0x31
    6322:	fa a9       	ldd	r31, Y+50	; 0x32
    6324:	82 e0       	ldi	r24, 0x02	; 2
    6326:	09 95       	icall
  u8g->state_cb(U8G_STATE_MSG_RESTORE_U8G);
    6328:	e9 a9       	ldd	r30, Y+49	; 0x31
    632a:	fa a9       	ldd	r31, Y+50	; 0x32
    632c:	81 e0       	ldi	r24, 0x01	; 1
    632e:	09 95       	icall
#include <stddef.h>
#include "u8g.h"

uint8_t u8g_call_dev_fn(u8g_t *u8g, u8g_dev_t *dev, uint8_t msg, void *arg)
{
  return dev->dev_fn(u8g, dev, msg, arg); 
    6330:	d8 01       	movw	r26, r16
    6332:	ed 91       	ld	r30, X+
    6334:	fc 91       	ld	r31, X
    6336:	20 e0       	ldi	r18, 0x00	; 0
    6338:	30 e0       	ldi	r19, 0x00	; 0
    633a:	45 e1       	ldi	r20, 0x15	; 21
    633c:	b8 01       	movw	r22, r16
    633e:	ce 01       	movw	r24, r28
    6340:	09 95       	icall
    6342:	f8 2e       	mov	r15, r24
{  
  uint8_t r;
  u8g->state_cb(U8G_STATE_MSG_BACKUP_ENV);
  u8g->state_cb(U8G_STATE_MSG_RESTORE_U8G);
  r = u8g_call_dev_fn(u8g, dev, U8G_DEV_MSG_PAGE_NEXT, NULL);
  if ( r != 0 )
    6344:	88 23       	and	r24, r24
    6346:	51 f0       	breq	.+20     	; 0x635c <u8g_NextPage+0x56>
#include <stddef.h>
#include "u8g.h"

uint8_t u8g_call_dev_fn(u8g_t *u8g, u8g_dev_t *dev, uint8_t msg, void *arg)
{
  return dev->dev_fn(u8g, dev, msg, arg); 
    6348:	d8 01       	movw	r26, r16
    634a:	ed 91       	ld	r30, X+
    634c:	fc 91       	ld	r31, X
    634e:	9e 01       	movw	r18, r28
    6350:	2d 5c       	subi	r18, 0xCD	; 205
    6352:	3f 4f       	sbci	r19, 0xFF	; 255
    6354:	47 e1       	ldi	r20, 0x17	; 23
    6356:	b8 01       	movw	r22, r16
    6358:	ce 01       	movw	r24, r28
    635a:	09 95       	icall
  r = u8g_call_dev_fn(u8g, dev, U8G_DEV_MSG_PAGE_NEXT, NULL);
  if ( r != 0 )
  {
    u8g_call_dev_fn(u8g, dev, U8G_DEV_MSG_GET_PAGE_BOX, &(u8g->current_page));
  }
  u8g->state_cb(U8G_STATE_MSG_RESTORE_ENV);
    635c:	e9 a9       	ldd	r30, Y+49	; 0x31
    635e:	fa a9       	ldd	r31, Y+50	; 0x32
    6360:	80 e0       	ldi	r24, 0x00	; 0
    6362:	09 95       	icall
  if  ( u8g->cursor_fn != (u8g_draw_cursor_fn)0 )
  {
    u8g->cursor_fn(u8g);
  }
  return u8g_NextPageLL(u8g, u8g->dev);
}
    6364:	8f 2d       	mov	r24, r15
    6366:	df 91       	pop	r29
    6368:	cf 91       	pop	r28
    636a:	1f 91       	pop	r17
    636c:	0f 91       	pop	r16
    636e:	ff 90       	pop	r15
    6370:	08 95       	ret

00006372 <u8g_DrawPixel>:
}


void u8g_DrawPixel(u8g_t *u8g, u8g_uint_t x, u8g_uint_t y)
{
  u8g_DrawPixelLL(u8g, u8g->dev, x, y);
    6372:	fc 01       	movw	r30, r24
    6374:	a2 81       	ldd	r26, Z+2	; 0x02
    6376:	b3 81       	ldd	r27, Z+3	; 0x03
}

void u8g_DrawPixelLL(u8g_t *u8g, u8g_dev_t *dev, u8g_uint_t x, u8g_uint_t y)
{
  u8g_dev_arg_pixel_t *arg = &(u8g->arg_pixel);
  arg->x = x;
    6378:	64 8f       	std	Z+28, r22	; 0x1c
  arg->y = y;
    637a:	45 8f       	std	Z+29, r20	; 0x1d
  return u8g_call_dev_fn(u8g, dev, U8G_DEV_MSG_CONTRAST, &contrast);
}

void u8g_DrawPixelLL(u8g_t *u8g, u8g_dev_t *dev, u8g_uint_t x, u8g_uint_t y)
{
  u8g_dev_arg_pixel_t *arg = &(u8g->arg_pixel);
    637c:	9c 01       	movw	r18, r24
    637e:	24 5e       	subi	r18, 0xE4	; 228
    6380:	3f 4f       	sbci	r19, 0xFF	; 255
#include <stddef.h>
#include "u8g.h"

uint8_t u8g_call_dev_fn(u8g_t *u8g, u8g_dev_t *dev, uint8_t msg, void *arg)
{
  return dev->dev_fn(u8g, dev, msg, arg); 
    6382:	ed 91       	ld	r30, X+
    6384:	fc 91       	ld	r31, X
    6386:	11 97       	sbiw	r26, 0x01	; 1
    6388:	42 e3       	ldi	r20, 0x32	; 50
    638a:	bd 01       	movw	r22, r26
    638c:	09 94       	ijmp

0000638e <u8g_Draw8Pixel>:
{
  u8g_DrawPixelLL(u8g, u8g->dev, x, y);
}

void u8g_Draw8Pixel(u8g_t *u8g, u8g_uint_t x, u8g_uint_t y, uint8_t dir, uint8_t pixel)
{
    638e:	0f 93       	push	r16
    6390:	cf 93       	push	r28
    6392:	df 93       	push	r29
    6394:	dc 01       	movw	r26, r24
  u8g_Draw8PixelLL(u8g, u8g->dev, x, y, dir, pixel);
    6396:	12 96       	adiw	r26, 0x02	; 2
    6398:	cd 91       	ld	r28, X+
    639a:	dc 91       	ld	r29, X
    639c:	13 97       	sbiw	r26, 0x03	; 3
}

void u8g_Draw8PixelLL(u8g_t *u8g, u8g_dev_t *dev, u8g_uint_t x, u8g_uint_t y, uint8_t dir, uint8_t pixel)
{
  u8g_dev_arg_pixel_t *arg = &(u8g->arg_pixel);
  arg->x = x;
    639e:	5c 96       	adiw	r26, 0x1c	; 28
    63a0:	6c 93       	st	X, r22
    63a2:	5c 97       	sbiw	r26, 0x1c	; 28
  arg->y = y;
    63a4:	5d 96       	adiw	r26, 0x1d	; 29
    63a6:	4c 93       	st	X, r20
    63a8:	5d 97       	sbiw	r26, 0x1d	; 29
  arg->dir = dir;
    63aa:	5f 96       	adiw	r26, 0x1f	; 31
    63ac:	2c 93       	st	X, r18
    63ae:	5f 97       	sbiw	r26, 0x1f	; 31
  arg->pixel = pixel;
    63b0:	5e 96       	adiw	r26, 0x1e	; 30
    63b2:	0c 93       	st	X, r16
  u8g_call_dev_fn(u8g, dev, U8G_DEV_MSG_SET_PIXEL, arg);
}

void u8g_Draw8PixelLL(u8g_t *u8g, u8g_dev_t *dev, u8g_uint_t x, u8g_uint_t y, uint8_t dir, uint8_t pixel)
{
  u8g_dev_arg_pixel_t *arg = &(u8g->arg_pixel);
    63b4:	9c 01       	movw	r18, r24
    63b6:	24 5e       	subi	r18, 0xE4	; 228
    63b8:	3f 4f       	sbci	r19, 0xFF	; 255
#include <stddef.h>
#include "u8g.h"

uint8_t u8g_call_dev_fn(u8g_t *u8g, u8g_dev_t *dev, uint8_t msg, void *arg)
{
  return dev->dev_fn(u8g, dev, msg, arg); 
    63ba:	e8 81       	ld	r30, Y
    63bc:	f9 81       	ldd	r31, Y+1	; 0x01
    63be:	4b e3       	ldi	r20, 0x3B	; 59
    63c0:	be 01       	movw	r22, r28
}

void u8g_Draw8Pixel(u8g_t *u8g, u8g_uint_t x, u8g_uint_t y, uint8_t dir, uint8_t pixel)
{
  u8g_Draw8PixelLL(u8g, u8g->dev, x, y, dir, pixel);
}
    63c2:	df 91       	pop	r29
    63c4:	cf 91       	pop	r28
    63c6:	0f 91       	pop	r16
#include <stddef.h>
#include "u8g.h"

uint8_t u8g_call_dev_fn(u8g_t *u8g, u8g_dev_t *dev, uint8_t msg, void *arg)
{
  return dev->dev_fn(u8g, dev, msg, arg); 
    63c8:	09 94       	ijmp

000063ca <u8g_pb_Clear>:

void u8g_pb_Clear(u8g_pb_t *b)
{
  uint8_t *ptr = (uint8_t *)b->buf;
  uint8_t *end_ptr = ptr;
  end_ptr += b->width;
    63ca:	fc 01       	movw	r30, r24
    63cc:	45 81       	ldd	r20, Z+5	; 0x05
  do
  {
    *ptr++ = 0;
    63ce:	50 e0       	ldi	r21, 0x00	; 0
    63d0:	60 e0       	ldi	r22, 0x00	; 0
    63d2:	70 e0       	ldi	r23, 0x00	; 0
    63d4:	86 81       	ldd	r24, Z+6	; 0x06
    63d6:	97 81       	ldd	r25, Z+7	; 0x07
    63d8:	0c 94 fb 35 	jmp	0x6bf6	; 0x6bf6 <memset>

000063dc <u8g_pb_GetPageBox>:
    
  return u8g_pb_IsXIntersection(pb, bbx->x, tmp);
}

void u8g_pb_GetPageBox(u8g_pb_t *pb, u8g_box_t *box)
{
    63dc:	dc 01       	movw	r26, r24
    63de:	fb 01       	movw	r30, r22
  box->x0 = 0;
    63e0:	10 82       	st	Z, r1
  box->y0 = pb->p.page_y0;
    63e2:	12 96       	adiw	r26, 0x02	; 2
    63e4:	8c 91       	ld	r24, X
    63e6:	12 97       	sbiw	r26, 0x02	; 2
    63e8:	81 83       	std	Z+1, r24	; 0x01
  box->x1 = pb->width;
  box->x1--;
    63ea:	15 96       	adiw	r26, 0x05	; 5
    63ec:	8c 91       	ld	r24, X
    63ee:	15 97       	sbiw	r26, 0x05	; 5
    63f0:	81 50       	subi	r24, 0x01	; 1
    63f2:	82 83       	std	Z+2, r24	; 0x02
  box->y1 = pb->p.page_y1;
    63f4:	13 96       	adiw	r26, 0x03	; 3
    63f6:	8c 91       	ld	r24, X
    63f8:	83 83       	std	Z+3, r24	; 0x03
    63fa:	08 95       	ret

000063fc <u8g_pb_Is8PixelVisible>:
}


uint8_t u8g_pb_Is8PixelVisible(u8g_pb_t *b, u8g_dev_arg_pixel_t *arg_pixel)
{
    63fc:	fc 01       	movw	r30, r24
  u8g_uint_t v0, v1;
  v0 = arg_pixel->y;
    63fe:	db 01       	movw	r26, r22
    6400:	11 96       	adiw	r26, 0x01	; 1
    6402:	9c 91       	ld	r25, X
    6404:	11 97       	sbiw	r26, 0x01	; 1
  v1 = v0;
  switch( arg_pixel->dir )
    6406:	13 96       	adiw	r26, 0x03	; 3
    6408:	8c 91       	ld	r24, X
    640a:	81 30       	cpi	r24, 0x01	; 1
    640c:	e1 f0       	breq	.+56     	; 0x6446 <u8g_pb_Is8PixelVisible+0x4a>
    640e:	83 30       	cpi	r24, 0x03	; 3
    6410:	41 f4       	brne	.+16     	; 0x6422 <u8g_pb_Is8PixelVisible+0x26>
      v1 += 8;          /* this is independent from the page height */
      break;
    case 2:  
      break;
    case 3: 
      v0 -= 8;
    6412:	88 ef       	ldi	r24, 0xF8	; 248
    6414:	89 0f       	add	r24, r25
    6416:	21 e0       	ldi	r18, 0x01	; 1
    6418:	98 17       	cp	r25, r24
    641a:	d8 f4       	brcc	.+54     	; 0x6452 <u8g_pb_Is8PixelVisible+0x56>

uint8_t u8g_pb_Is8PixelVisible(u8g_pb_t *b, u8g_dev_arg_pixel_t *arg_pixel)
{
  u8g_uint_t v0, v1;
  v0 = arg_pixel->y;
  v1 = v0;
    641c:	49 2f       	mov	r20, r25
      v1 += 8;          /* this is independent from the page height */
      break;
    case 2:  
      break;
    case 3: 
      v0 -= 8;
    641e:	98 2f       	mov	r25, r24
      break;
    6420:	02 c0       	rjmp	.+4      	; 0x6426 <u8g_pb_Is8PixelVisible+0x2a>

uint8_t u8g_pb_Is8PixelVisible(u8g_pb_t *b, u8g_dev_arg_pixel_t *arg_pixel)
{
  u8g_uint_t v0, v1;
  v0 = arg_pixel->y;
  v1 = v0;
    6422:	49 2f       	mov	r20, r25
  switch( arg_pixel->dir )
    6424:	20 e0       	ldi	r18, 0x00	; 0
*/

uint8_t u8g_pb_IsYIntersection(u8g_pb_t *pb, u8g_uint_t v0, u8g_uint_t v1)
{
  uint8_t c1, c2, c3, tmp;
  c1 = v0 <= pb->p.page_y1;
    6426:	81 e0       	ldi	r24, 0x01	; 1
    6428:	33 81       	ldd	r19, Z+3	; 0x03
    642a:	39 17       	cp	r19, r25
    642c:	08 f4       	brcc	.+2      	; 0x6430 <u8g_pb_Is8PixelVisible+0x34>
    642e:	80 e0       	ldi	r24, 0x00	; 0
  c2 = v1 >= pb->p.page_y0;
    6430:	31 e0       	ldi	r19, 0x01	; 1
    6432:	92 81       	ldd	r25, Z+2	; 0x02
    6434:	49 17       	cp	r20, r25
    6436:	08 f4       	brcc	.+2      	; 0x643a <u8g_pb_Is8PixelVisible+0x3e>
    6438:	30 e0       	ldi	r19, 0x00	; 0
    return 1;
  return 0;
  */
  
  tmp = c1;
  c1 &= c2;
    643a:	98 2f       	mov	r25, r24
    643c:	92 2b       	or	r25, r18
  c2 &= c3;
  c3 &= tmp;
  c1 |= c2;
    643e:	93 23       	and	r25, r19
  */
  
  tmp = c1;
  c1 &= c2;
  c2 &= c3;
  c3 &= tmp;
    6440:	82 23       	and	r24, r18
    case 3: 
      v0 -= 8;
      break;
  }
  return u8g_pb_IsYIntersection(b, v0, v1);
}
    6442:	89 2b       	or	r24, r25
    6444:	08 95       	ret
  switch( arg_pixel->dir )
  {
    case 0:
      break;
    case 1:  
      v1 += 8;          /* this is independent from the page height */
    6446:	48 e0       	ldi	r20, 0x08	; 8
    6448:	49 0f       	add	r20, r25
    644a:	21 e0       	ldi	r18, 0x01	; 1
    644c:	49 17       	cp	r20, r25
    644e:	58 f3       	brcs	.-42     	; 0x6426 <u8g_pb_Is8PixelVisible+0x2a>
    6450:	e9 cf       	rjmp	.-46     	; 0x6424 <u8g_pb_Is8PixelVisible+0x28>
    6452:	20 e0       	ldi	r18, 0x00	; 0

uint8_t u8g_pb_Is8PixelVisible(u8g_pb_t *b, u8g_dev_arg_pixel_t *arg_pixel)
{
  u8g_uint_t v0, v1;
  v0 = arg_pixel->y;
  v1 = v0;
    6454:	49 2f       	mov	r20, r25
      v1 += 8;          /* this is independent from the page height */
      break;
    case 2:  
      break;
    case 3: 
      v0 -= 8;
    6456:	98 2f       	mov	r25, r24
    6458:	e6 cf       	rjmp	.-52     	; 0x6426 <u8g_pb_Is8PixelVisible+0x2a>

0000645a <u8g_pb_WriteBuffer>:
}



uint8_t u8g_pb_WriteBuffer(u8g_pb_t *b, u8g_t *u8g, u8g_dev_t *dev)
{
    645a:	fc 01       	movw	r30, r24
    645c:	cb 01       	movw	r24, r22
    645e:	ba 01       	movw	r22, r20
  return u8g_WriteSequence(u8g, dev, b->width, b->buf);  
    6460:	26 81       	ldd	r18, Z+6	; 0x06
    6462:	37 81       	ldd	r19, Z+7	; 0x07
    6464:	45 81       	ldd	r20, Z+5	; 0x05
    6466:	0c 94 64 34 	jmp	0x68c8	; 0x68c8 <u8g_WriteSequence>

0000646a <u8g_pb8v1_set_pixel>:
}

void u8g_pb8v1_set_pixel(u8g_pb_t *b, u8g_uint_t x, u8g_uint_t y, uint8_t color_index)
{
  register uint8_t mask;
  uint8_t *ptr = b->buf;
    646a:	dc 01       	movw	r26, r24
    646c:	16 96       	adiw	r26, 0x06	; 6
    646e:	ed 91       	ld	r30, X+
    6470:	fc 91       	ld	r31, X
    6472:	17 97       	sbiw	r26, 0x07	; 7
  
  y -= b->p.page_y0;
    6474:	12 96       	adiw	r26, 0x02	; 2
    6476:	8c 91       	ld	r24, X
    6478:	48 1b       	sub	r20, r24
  mask = 1;
  y &= 0x07;
    647a:	47 70       	andi	r20, 0x07	; 7
  mask <<= y;
    647c:	81 e0       	ldi	r24, 0x01	; 1
    647e:	90 e0       	ldi	r25, 0x00	; 0
    6480:	04 2e       	mov	r0, r20
    6482:	01 c0       	rjmp	.+2      	; 0x6486 <u8g_pb8v1_set_pixel+0x1c>
    6484:	88 0f       	add	r24, r24
    6486:	0a 94       	dec	r0
    6488:	ea f7       	brpl	.-6      	; 0x6484 <u8g_pb8v1_set_pixel+0x1a>
  ptr += x;
    648a:	e6 0f       	add	r30, r22
    648c:	f1 1d       	adc	r31, r1
  if ( color_index )
    648e:	21 11       	cpse	r18, r1
    6490:	05 c0       	rjmp	.+10     	; 0x649c <u8g_pb8v1_set_pixel+0x32>
  {
    *ptr |= mask;
  }
  else
  {
    mask ^=0xff;
    6492:	80 95       	com	r24
    *ptr &= mask;
    6494:	90 81       	ld	r25, Z
    6496:	98 23       	and	r25, r24
    6498:	90 83       	st	Z, r25
    649a:	08 95       	ret
  y &= 0x07;
  mask <<= y;
  ptr += x;
  if ( color_index )
  {
    *ptr |= mask;
    649c:	90 81       	ld	r25, Z
    649e:	98 2b       	or	r25, r24
    64a0:	90 83       	st	Z, r25
    64a2:	08 95       	ret

000064a4 <u8g_pb8v1_SetPixel>:
}


void u8g_pb8v1_SetPixel(u8g_pb_t *b, const u8g_dev_arg_pixel_t * const arg_pixel)
{
  if ( arg_pixel->y < b->p.page_y0 )
    64a4:	fb 01       	movw	r30, r22
    64a6:	41 81       	ldd	r20, Z+1	; 0x01
    64a8:	fc 01       	movw	r30, r24
    64aa:	22 81       	ldd	r18, Z+2	; 0x02
    64ac:	42 17       	cp	r20, r18
    64ae:	48 f0       	brcs	.+18     	; 0x64c2 <u8g_pb8v1_SetPixel+0x1e>
    return;
  if ( arg_pixel->y > b->p.page_y1 )
    64b0:	23 81       	ldd	r18, Z+3	; 0x03
    64b2:	24 17       	cp	r18, r20
    64b4:	30 f0       	brcs	.+12     	; 0x64c2 <u8g_pb8v1_SetPixel+0x1e>
    return;
  if ( arg_pixel->x >= b->width )
    64b6:	fb 01       	movw	r30, r22
    64b8:	30 81       	ld	r19, Z
    64ba:	fc 01       	movw	r30, r24
    64bc:	25 81       	ldd	r18, Z+5	; 0x05
    64be:	32 17       	cp	r19, r18
    64c0:	08 f0       	brcs	.+2      	; 0x64c4 <u8g_pb8v1_SetPixel+0x20>
    64c2:	08 95       	ret
    return;
  u8g_pb8v1_set_pixel(b, arg_pixel->x, arg_pixel->y, arg_pixel->color);
    64c4:	fb 01       	movw	r30, r22
    64c6:	24 81       	ldd	r18, Z+4	; 0x04
    64c8:	63 2f       	mov	r22, r19
    64ca:	0c 94 35 32 	jmp	0x646a	; 0x646a <u8g_pb8v1_set_pixel>

000064ce <u8g_dev_pb8v1_base_fn>:
  } while( pixel != 0  );
  
}

uint8_t u8g_dev_pb8v1_base_fn(u8g_t *u8g, u8g_dev_t *dev, uint8_t msg, void *arg)
{
    64ce:	df 92       	push	r13
    64d0:	ef 92       	push	r14
    64d2:	ff 92       	push	r15
    64d4:	0f 93       	push	r16
    64d6:	1f 93       	push	r17
    64d8:	cf 93       	push	r28
    64da:	df 93       	push	r29
    64dc:	e9 01       	movw	r28, r18
  u8g_pb_t *pb = (u8g_pb_t *)(dev->dev_mem);
    64de:	fb 01       	movw	r30, r22
    64e0:	02 81       	ldd	r16, Z+2	; 0x02
    64e2:	13 81       	ldd	r17, Z+3	; 0x03
  switch(msg)
    64e4:	50 e0       	ldi	r21, 0x00	; 0
    64e6:	fa 01       	movw	r30, r20
    64e8:	74 97       	sbiw	r30, 0x14	; 20
    64ea:	e4 33       	cpi	r30, 0x34	; 52
    64ec:	f1 05       	cpc	r31, r1
    64ee:	38 f4       	brcc	.+14     	; 0x64fe <u8g_dev_pb8v1_base_fn+0x30>
    64f0:	eb 58       	subi	r30, 0x8B	; 139
    64f2:	ff 4f       	sbci	r31, 0xFF	; 255
    64f4:	0c 94 be 35 	jmp	0x6b7c	; 0x6b7c <__tablejump2__>
#endif
    case U8G_DEV_MSG_GET_PAGE_BOX:
      u8g_pb_GetPageBox(pb, (u8g_box_t *)arg);
      break;
    case U8G_DEV_MSG_GET_WIDTH:
      *((u8g_uint_t *)arg) = pb->width;
    64f8:	f8 01       	movw	r30, r16
    64fa:	85 81       	ldd	r24, Z+5	; 0x05
    64fc:	88 83       	st	Y, r24
    case U8G_DEV_MSG_SET_XY_CB:
      break;
    case U8G_DEV_MSG_GET_MODE:
      return U8G_MODE_BW;
  }
  return 1;
    64fe:	81 e0       	ldi	r24, 0x01	; 1
}
    6500:	df 91       	pop	r29
    6502:	cf 91       	pop	r28
    6504:	1f 91       	pop	r17
    6506:	0f 91       	pop	r16
    6508:	ff 90       	pop	r15
    650a:	ef 90       	pop	r14
    650c:	df 90       	pop	r13
    650e:	08 95       	ret
{
  u8g_pb_t *pb = (u8g_pb_t *)(dev->dev_mem);
  switch(msg)
  {
    case U8G_DEV_MSG_SET_8PIXEL:
      if ( u8g_pb_Is8PixelVisible(pb, (u8g_dev_arg_pixel_t *)arg) )
    6510:	b9 01       	movw	r22, r18
    6512:	c8 01       	movw	r24, r16
    6514:	0e 94 fe 31 	call	0x63fc	; 0x63fc <u8g_pb_Is8PixelVisible>
    6518:	88 23       	and	r24, r24
    651a:	89 f3       	breq	.-30     	; 0x64fe <u8g_dev_pb8v1_base_fn+0x30>
}


void u8g_pb8v1_Set8PixelOpt2(u8g_pb_t *b, u8g_dev_arg_pixel_t *arg_pixel)
{
  register uint8_t pixel = arg_pixel->pixel;
    651c:	fa 80       	ldd	r15, Y+2	; 0x02
  u8g_uint_t dx = 0;
  u8g_uint_t dy = 0;
  
  switch( arg_pixel->dir )
    651e:	8b 81       	ldd	r24, Y+3	; 0x03
    6520:	81 30       	cpi	r24, 0x01	; 1
    6522:	09 f4       	brne	.+2      	; 0x6526 <u8g_dev_pb8v1_base_fn+0x58>
    6524:	5f c0       	rjmp	.+190    	; 0x65e4 <u8g_dev_pb8v1_base_fn+0x116>
    6526:	08 f4       	brcc	.+2      	; 0x652a <u8g_dev_pb8v1_base_fn+0x5c>
    6528:	65 c0       	rjmp	.+202    	; 0x65f4 <u8g_dev_pb8v1_base_fn+0x126>
    652a:	82 30       	cpi	r24, 0x02	; 2
    652c:	09 f4       	brne	.+2      	; 0x6530 <u8g_dev_pb8v1_base_fn+0x62>
    652e:	5e c0       	rjmp	.+188    	; 0x65ec <u8g_dev_pb8v1_base_fn+0x11e>
    6530:	83 30       	cpi	r24, 0x03	; 3
    6532:	09 f4       	brne	.+2      	; 0x6536 <u8g_dev_pb8v1_base_fn+0x68>
    6534:	53 c0       	rjmp	.+166    	; 0x65dc <u8g_dev_pb8v1_base_fn+0x10e>

void u8g_pb8v1_Set8PixelOpt2(u8g_pb_t *b, u8g_dev_arg_pixel_t *arg_pixel)
{
  register uint8_t pixel = arg_pixel->pixel;
  u8g_uint_t dx = 0;
  u8g_uint_t dy = 0;
    6536:	d1 2c       	mov	r13, r1


void u8g_pb8v1_Set8PixelOpt2(u8g_pb_t *b, u8g_dev_arg_pixel_t *arg_pixel)
{
  register uint8_t pixel = arg_pixel->pixel;
  u8g_uint_t dx = 0;
    6538:	e1 2c       	mov	r14, r1
    653a:	08 c0       	rjmp	.+16     	; 0x654c <u8g_dev_pb8v1_base_fn+0x7e>
  
  do
  {
    if ( pixel & 128 )
      u8g_pb8v1_SetPixel(b, arg_pixel);
    arg_pixel->x += dx;
    653c:	88 81       	ld	r24, Y
    653e:	8e 0d       	add	r24, r14
    6540:	88 83       	st	Y, r24
    arg_pixel->y += dy;
    6542:	89 81       	ldd	r24, Y+1	; 0x01
    6544:	8d 0d       	add	r24, r13
    6546:	89 83       	std	Y+1, r24	; 0x01
    pixel <<= 1;
    6548:	ff 0c       	add	r15, r15
  } while( pixel != 0  );
    654a:	c9 f2       	breq	.-78     	; 0x64fe <u8g_dev_pb8v1_base_fn+0x30>
    case 3: dy--; break;
  }
  
  do
  {
    if ( pixel & 128 )
    654c:	f7 fe       	sbrs	r15, 7
    654e:	f6 cf       	rjmp	.-20     	; 0x653c <u8g_dev_pb8v1_base_fn+0x6e>
      u8g_pb8v1_SetPixel(b, arg_pixel);
    6550:	be 01       	movw	r22, r28
    6552:	c8 01       	movw	r24, r16
    6554:	0e 94 52 32 	call	0x64a4	; 0x64a4 <u8g_pb8v1_SetPixel>
    6558:	f1 cf       	rjmp	.-30     	; 0x653c <u8g_dev_pb8v1_base_fn+0x6e>
      break;
    case U8G_DEV_MSG_GET_WIDTH:
      *((u8g_uint_t *)arg) = pb->width;
      break;
    case U8G_DEV_MSG_GET_HEIGHT:
      *((u8g_uint_t *)arg) = pb->p.total_height;
    655a:	f8 01       	movw	r30, r16
    655c:	81 81       	ldd	r24, Z+1	; 0x01
    655e:	88 83       	st	Y, r24
    case U8G_DEV_MSG_SET_XY_CB:
      break;
    case U8G_DEV_MSG_GET_MODE:
      return U8G_MODE_BW;
  }
  return 1;
    6560:	81 e0       	ldi	r24, 0x01	; 1
}
    6562:	df 91       	pop	r29
    6564:	cf 91       	pop	r28
    6566:	1f 91       	pop	r17
    6568:	0f 91       	pop	r16
    656a:	ff 90       	pop	r15
    656c:	ef 90       	pop	r14
    656e:	df 90       	pop	r13
    6570:	08 95       	ret
    case U8G_DEV_MSG_INIT:
      break;
    case U8G_DEV_MSG_STOP:
      break;
    case U8G_DEV_MSG_PAGE_FIRST:
      u8g_pb_Clear(pb);
    6572:	c8 01       	movw	r24, r16
    6574:	0e 94 e5 31 	call	0x63ca	; 0x63ca <u8g_pb_Clear>
      u8g_page_First(&(pb->p));
    6578:	c8 01       	movw	r24, r16
    657a:	0e 94 8d 35 	call	0x6b1a	; 0x6b1a <u8g_page_First>
    case U8G_DEV_MSG_SET_XY_CB:
      break;
    case U8G_DEV_MSG_GET_MODE:
      return U8G_MODE_BW;
  }
  return 1;
    657e:	81 e0       	ldi	r24, 0x01	; 1
}
    6580:	df 91       	pop	r29
    6582:	cf 91       	pop	r28
    6584:	1f 91       	pop	r17
    6586:	0f 91       	pop	r16
    6588:	ff 90       	pop	r15
    658a:	ef 90       	pop	r14
    658c:	df 90       	pop	r13
    658e:	08 95       	ret
    case U8G_DEV_MSG_PAGE_FIRST:
      u8g_pb_Clear(pb);
      u8g_page_First(&(pb->p));
      break;
    case U8G_DEV_MSG_PAGE_NEXT:
      if ( u8g_page_Next(&(pb->p)) == 0 )
    6590:	c8 01       	movw	r24, r16
    6592:	0e 94 94 35 	call	0x6b28	; 0x6b28 <u8g_page_Next>
    6596:	81 11       	cpse	r24, r1
    6598:	1c c0       	rjmp	.+56     	; 0x65d2 <u8g_dev_pb8v1_base_fn+0x104>
        return 0;
    659a:	80 e0       	ldi	r24, 0x00	; 0
    659c:	b1 cf       	rjmp	.-158    	; 0x6500 <u8g_dev_pb8v1_base_fn+0x32>
#ifdef U8G_DEV_MSG_IS_BBX_INTERSECTION
    case U8G_DEV_MSG_IS_BBX_INTERSECTION:
      return u8g_pb_IsIntersection(pb, (u8g_dev_arg_bbx_t *)arg);
#endif
    case U8G_DEV_MSG_GET_PAGE_BOX:
      u8g_pb_GetPageBox(pb, (u8g_box_t *)arg);
    659e:	b9 01       	movw	r22, r18
    65a0:	c8 01       	movw	r24, r16
    65a2:	0e 94 ee 31 	call	0x63dc	; 0x63dc <u8g_pb_GetPageBox>
    case U8G_DEV_MSG_SET_XY_CB:
      break;
    case U8G_DEV_MSG_GET_MODE:
      return U8G_MODE_BW;
  }
  return 1;
    65a6:	81 e0       	ldi	r24, 0x01	; 1
}
    65a8:	df 91       	pop	r29
    65aa:	cf 91       	pop	r28
    65ac:	1f 91       	pop	r17
    65ae:	0f 91       	pop	r16
    65b0:	ff 90       	pop	r15
    65b2:	ef 90       	pop	r14
    65b4:	df 90       	pop	r13
    65b6:	08 95       	ret
    case U8G_DEV_MSG_SET_8PIXEL:
      if ( u8g_pb_Is8PixelVisible(pb, (u8g_dev_arg_pixel_t *)arg) )
        u8g_pb8v1_Set8PixelOpt2(pb, (u8g_dev_arg_pixel_t *)arg);
      break;
    case U8G_DEV_MSG_SET_PIXEL:
        u8g_pb8v1_SetPixel(pb, (u8g_dev_arg_pixel_t *)arg);
    65b8:	b9 01       	movw	r22, r18
    65ba:	c8 01       	movw	r24, r16
    65bc:	0e 94 52 32 	call	0x64a4	; 0x64a4 <u8g_pb8v1_SetPixel>
    case U8G_DEV_MSG_SET_XY_CB:
      break;
    case U8G_DEV_MSG_GET_MODE:
      return U8G_MODE_BW;
  }
  return 1;
    65c0:	81 e0       	ldi	r24, 0x01	; 1
}
    65c2:	df 91       	pop	r29
    65c4:	cf 91       	pop	r28
    65c6:	1f 91       	pop	r17
    65c8:	0f 91       	pop	r16
    65ca:	ff 90       	pop	r15
    65cc:	ef 90       	pop	r14
    65ce:	df 90       	pop	r13
    65d0:	08 95       	ret
      u8g_page_First(&(pb->p));
      break;
    case U8G_DEV_MSG_PAGE_NEXT:
      if ( u8g_page_Next(&(pb->p)) == 0 )
        return 0;
      u8g_pb_Clear(pb);
    65d2:	c8 01       	movw	r24, r16
    65d4:	0e 94 e5 31 	call	0x63ca	; 0x63ca <u8g_pb_Clear>
    case U8G_DEV_MSG_SET_XY_CB:
      break;
    case U8G_DEV_MSG_GET_MODE:
      return U8G_MODE_BW;
  }
  return 1;
    65d8:	81 e0       	ldi	r24, 0x01	; 1
      break;
    case U8G_DEV_MSG_PAGE_NEXT:
      if ( u8g_page_Next(&(pb->p)) == 0 )
        return 0;
      u8g_pb_Clear(pb);
      break;
    65da:	92 cf       	rjmp	.-220    	; 0x6500 <u8g_dev_pb8v1_base_fn+0x32>
  switch( arg_pixel->dir )
  {
    case 0: dx++; break;
    case 1: dy++; break;
    case 2: dx--; break;
    case 3: dy--; break;
    65dc:	dd 24       	eor	r13, r13
    65de:	da 94       	dec	r13


void u8g_pb8v1_Set8PixelOpt2(u8g_pb_t *b, u8g_dev_arg_pixel_t *arg_pixel)
{
  register uint8_t pixel = arg_pixel->pixel;
  u8g_uint_t dx = 0;
    65e0:	e1 2c       	mov	r14, r1
    65e2:	b4 cf       	rjmp	.-152    	; 0x654c <u8g_dev_pb8v1_base_fn+0x7e>
  u8g_uint_t dy = 0;
  
  switch( arg_pixel->dir )
  {
    case 0: dx++; break;
    case 1: dy++; break;
    65e4:	dd 24       	eor	r13, r13
    65e6:	d3 94       	inc	r13


void u8g_pb8v1_Set8PixelOpt2(u8g_pb_t *b, u8g_dev_arg_pixel_t *arg_pixel)
{
  register uint8_t pixel = arg_pixel->pixel;
  u8g_uint_t dx = 0;
    65e8:	e1 2c       	mov	r14, r1
    65ea:	b0 cf       	rjmp	.-160    	; 0x654c <u8g_dev_pb8v1_base_fn+0x7e>
  u8g_uint_t dy = 0;
    65ec:	d1 2c       	mov	r13, r1
  
  switch( arg_pixel->dir )
  {
    case 0: dx++; break;
    case 1: dy++; break;
    case 2: dx--; break;
    65ee:	ee 24       	eor	r14, r14
    65f0:	ea 94       	dec	r14
    65f2:	ac cf       	rjmp	.-168    	; 0x654c <u8g_dev_pb8v1_base_fn+0x7e>

void u8g_pb8v1_Set8PixelOpt2(u8g_pb_t *b, u8g_dev_arg_pixel_t *arg_pixel)
{
  register uint8_t pixel = arg_pixel->pixel;
  u8g_uint_t dx = 0;
  u8g_uint_t dy = 0;
    65f4:	d1 2c       	mov	r13, r1
  
  switch( arg_pixel->dir )
  {
    case 0: dx++; break;
    65f6:	ee 24       	eor	r14, r14
    65f8:	e3 94       	inc	r14
    65fa:	a8 cf       	rjmp	.-176    	; 0x654c <u8g_dev_pb8v1_base_fn+0x7e>

000065fc <u8g_DrawHLine>:
    u8g_Draw8Pixel(u8g, x, y, 1, pixel);
  }
}

void u8g_DrawHLine(u8g_t *u8g, u8g_uint_t x, u8g_uint_t y, u8g_uint_t w)
{
    65fc:	af 92       	push	r10
    65fe:	bf 92       	push	r11
    6600:	df 92       	push	r13
    6602:	ef 92       	push	r14
    6604:	ff 92       	push	r15
    6606:	0f 93       	push	r16
    6608:	1f 93       	push	r17
    660a:	cf 93       	push	r28
    660c:	df 93       	push	r29
    660e:	1f 92       	push	r1
    6610:	cd b7       	in	r28, 0x3d	; 61
    6612:	de b7       	in	r29, 0x3e	; 62
    6614:	5c 01       	movw	r10, r24
    6616:	e6 2e       	mov	r14, r22
    6618:	f4 2e       	mov	r15, r20
    661a:	d2 2e       	mov	r13, r18
  if ( u8g_IsBBXIntersection(u8g, x, y, w, 1) == 0 )
    661c:	01 e0       	ldi	r16, 0x01	; 1
    661e:	0e 94 1d 34 	call	0x683a	; 0x683a <u8g_IsBBXIntersection>
    6622:	81 11       	cpse	r24, r1
    6624:	0b c0       	rjmp	.+22     	; 0x663c <u8g_DrawHLine+0x40>
    return;
  u8g_draw_hline(u8g, x, y, w);
}
    6626:	0f 90       	pop	r0
    6628:	df 91       	pop	r29
    662a:	cf 91       	pop	r28
    662c:	1f 91       	pop	r17
    662e:	0f 91       	pop	r16
    6630:	ff 90       	pop	r15
    6632:	ef 90       	pop	r14
    6634:	df 90       	pop	r13
    6636:	bf 90       	pop	r11
    6638:	af 90       	pop	r10
    663a:	08 95       	ret
#include "u8g.h"

void u8g_draw_hline(u8g_t *u8g, u8g_uint_t x, u8g_uint_t y, u8g_uint_t w)
{
  uint8_t pixel = 0x0ff;
  while( w >= 8 )
    663c:	87 e0       	ldi	r24, 0x07	; 7
    663e:	8d 15       	cp	r24, r13
    6640:	50 f5       	brcc	.+84     	; 0x6696 <u8g_DrawHLine+0x9a>
    6642:	3d 2d       	mov	r19, r13
    6644:	1e 2d       	mov	r17, r14
  {
    u8g_Draw8Pixel(u8g, x, y, 0, pixel);
    6646:	0f ef       	ldi	r16, 0xFF	; 255
    6648:	20 e0       	ldi	r18, 0x00	; 0
    664a:	4f 2d       	mov	r20, r15
    664c:	61 2f       	mov	r22, r17
    664e:	c5 01       	movw	r24, r10
    6650:	39 83       	std	Y+1, r19	; 0x01
    6652:	0e 94 c7 31 	call	0x638e	; 0x638e <u8g_Draw8Pixel>
    w-=8;
    6656:	39 81       	ldd	r19, Y+1	; 0x01
    6658:	38 50       	subi	r19, 0x08	; 8
    x+=8;
    665a:	18 5f       	subi	r17, 0xF8	; 248
#include "u8g.h"

void u8g_draw_hline(u8g_t *u8g, u8g_uint_t x, u8g_uint_t y, u8g_uint_t w)
{
  uint8_t pixel = 0x0ff;
  while( w >= 8 )
    665c:	38 30       	cpi	r19, 0x08	; 8
    665e:	98 f7       	brcc	.-26     	; 0x6646 <u8g_DrawHLine+0x4a>
    6660:	9d 2d       	mov	r25, r13
    6662:	97 70       	andi	r25, 0x07	; 7
    6664:	e8 e0       	ldi	r30, 0x08	; 8
    6666:	ee 0e       	add	r14, r30
    6668:	88 ef       	ldi	r24, 0xF8	; 248
    666a:	8d 0d       	add	r24, r13
    666c:	88 7f       	andi	r24, 0xF8	; 248
    666e:	e8 0e       	add	r14, r24
  {
    u8g_Draw8Pixel(u8g, x, y, 0, pixel);
    w-=8;
    x+=8;
  }
  if ( w != 0 )
    6670:	99 23       	and	r25, r25
    6672:	c9 f2       	breq	.-78     	; 0x6626 <u8g_DrawHLine+0x2a>
  {
    w ^=7;
    6674:	87 e0       	ldi	r24, 0x07	; 7
    6676:	89 27       	eor	r24, r25
    w++;
    6678:	8f 5f       	subi	r24, 0xFF	; 255
    pixel <<= w&7;
    667a:	87 70       	andi	r24, 0x07	; 7
    667c:	0f ef       	ldi	r16, 0xFF	; 255
    667e:	10 e0       	ldi	r17, 0x00	; 0
    6680:	01 c0       	rjmp	.+2      	; 0x6684 <u8g_DrawHLine+0x88>
    6682:	00 0f       	add	r16, r16
    6684:	8a 95       	dec	r24
    6686:	ea f7       	brpl	.-6      	; 0x6682 <u8g_DrawHLine+0x86>
    u8g_Draw8Pixel(u8g, x, y, 0, pixel);
    6688:	20 e0       	ldi	r18, 0x00	; 0
    668a:	4f 2d       	mov	r20, r15
    668c:	6e 2d       	mov	r22, r14
    668e:	c5 01       	movw	r24, r10
    6690:	0e 94 c7 31 	call	0x638e	; 0x638e <u8g_Draw8Pixel>
    6694:	c8 cf       	rjmp	.-112    	; 0x6626 <u8g_DrawHLine+0x2a>
#include "u8g.h"

void u8g_draw_hline(u8g_t *u8g, u8g_uint_t x, u8g_uint_t y, u8g_uint_t w)
{
  uint8_t pixel = 0x0ff;
  while( w >= 8 )
    6696:	9d 2d       	mov	r25, r13
    6698:	eb cf       	rjmp	.-42     	; 0x6670 <u8g_DrawHLine+0x74>

0000669a <u8g_DrawVLine>:
    return;
  u8g_draw_hline(u8g, x, y, w);
}

void u8g_DrawVLine(u8g_t *u8g, u8g_uint_t x, u8g_uint_t y, u8g_uint_t w)
{
    669a:	af 92       	push	r10
    669c:	bf 92       	push	r11
    669e:	df 92       	push	r13
    66a0:	ef 92       	push	r14
    66a2:	ff 92       	push	r15
    66a4:	0f 93       	push	r16
    66a6:	1f 93       	push	r17
    66a8:	cf 93       	push	r28
    66aa:	df 93       	push	r29
    66ac:	1f 92       	push	r1
    66ae:	cd b7       	in	r28, 0x3d	; 61
    66b0:	de b7       	in	r29, 0x3e	; 62
    66b2:	5c 01       	movw	r10, r24
    66b4:	f6 2e       	mov	r15, r22
    66b6:	e4 2e       	mov	r14, r20
    66b8:	d2 2e       	mov	r13, r18
  if ( u8g_IsBBXIntersection(u8g, x, y, 1, w) == 0 )
    66ba:	02 2f       	mov	r16, r18
    66bc:	21 e0       	ldi	r18, 0x01	; 1
    66be:	0e 94 1d 34 	call	0x683a	; 0x683a <u8g_IsBBXIntersection>
    66c2:	81 11       	cpse	r24, r1
    66c4:	0b c0       	rjmp	.+22     	; 0x66dc <u8g_DrawVLine+0x42>
    return;
  u8g_draw_vline(u8g, x, y, w);
}
    66c6:	0f 90       	pop	r0
    66c8:	df 91       	pop	r29
    66ca:	cf 91       	pop	r28
    66cc:	1f 91       	pop	r17
    66ce:	0f 91       	pop	r16
    66d0:	ff 90       	pop	r15
    66d2:	ef 90       	pop	r14
    66d4:	df 90       	pop	r13
    66d6:	bf 90       	pop	r11
    66d8:	af 90       	pop	r10
    66da:	08 95       	ret
}

void u8g_draw_vline(u8g_t *u8g, u8g_uint_t x, u8g_uint_t y, u8g_uint_t h)
{
  uint8_t pixel = 0x0ff;
  while( h >= 8 )
    66dc:	87 e0       	ldi	r24, 0x07	; 7
    66de:	8d 15       	cp	r24, r13
    66e0:	50 f5       	brcc	.+84     	; 0x6736 <u8g_DrawVLine+0x9c>
    66e2:	3d 2d       	mov	r19, r13
    66e4:	1e 2d       	mov	r17, r14
  {
    u8g_Draw8Pixel(u8g, x, y, 1, pixel);
    66e6:	0f ef       	ldi	r16, 0xFF	; 255
    66e8:	21 e0       	ldi	r18, 0x01	; 1
    66ea:	41 2f       	mov	r20, r17
    66ec:	6f 2d       	mov	r22, r15
    66ee:	c5 01       	movw	r24, r10
    66f0:	39 83       	std	Y+1, r19	; 0x01
    66f2:	0e 94 c7 31 	call	0x638e	; 0x638e <u8g_Draw8Pixel>
    h-=8;
    66f6:	39 81       	ldd	r19, Y+1	; 0x01
    66f8:	38 50       	subi	r19, 0x08	; 8
    y+=8;
    66fa:	18 5f       	subi	r17, 0xF8	; 248
}

void u8g_draw_vline(u8g_t *u8g, u8g_uint_t x, u8g_uint_t y, u8g_uint_t h)
{
  uint8_t pixel = 0x0ff;
  while( h >= 8 )
    66fc:	38 30       	cpi	r19, 0x08	; 8
    66fe:	98 f7       	brcc	.-26     	; 0x66e6 <u8g_DrawVLine+0x4c>
    6700:	9d 2d       	mov	r25, r13
    6702:	97 70       	andi	r25, 0x07	; 7
    6704:	e8 e0       	ldi	r30, 0x08	; 8
    6706:	ee 0e       	add	r14, r30
    6708:	88 ef       	ldi	r24, 0xF8	; 248
    670a:	8d 0d       	add	r24, r13
    670c:	88 7f       	andi	r24, 0xF8	; 248
    670e:	e8 0e       	add	r14, r24
  {
    u8g_Draw8Pixel(u8g, x, y, 1, pixel);
    h-=8;
    y+=8;
  }
  if ( h != 0 )
    6710:	99 23       	and	r25, r25
    6712:	c9 f2       	breq	.-78     	; 0x66c6 <u8g_DrawVLine+0x2c>
  {
    h ^=7;
    6714:	87 e0       	ldi	r24, 0x07	; 7
    6716:	89 27       	eor	r24, r25
    h++;
    6718:	8f 5f       	subi	r24, 0xFF	; 255
    pixel <<= h&7;
    671a:	87 70       	andi	r24, 0x07	; 7
    671c:	0f ef       	ldi	r16, 0xFF	; 255
    671e:	10 e0       	ldi	r17, 0x00	; 0
    6720:	01 c0       	rjmp	.+2      	; 0x6724 <u8g_DrawVLine+0x8a>
    6722:	00 0f       	add	r16, r16
    6724:	8a 95       	dec	r24
    6726:	ea f7       	brpl	.-6      	; 0x6722 <u8g_DrawVLine+0x88>
    u8g_Draw8Pixel(u8g, x, y, 1, pixel);
    6728:	21 e0       	ldi	r18, 0x01	; 1
    672a:	4e 2d       	mov	r20, r14
    672c:	6f 2d       	mov	r22, r15
    672e:	c5 01       	movw	r24, r10
    6730:	0e 94 c7 31 	call	0x638e	; 0x638e <u8g_Draw8Pixel>
    6734:	c8 cf       	rjmp	.-112    	; 0x66c6 <u8g_DrawVLine+0x2c>
}

void u8g_draw_vline(u8g_t *u8g, u8g_uint_t x, u8g_uint_t y, u8g_uint_t h)
{
  uint8_t pixel = 0x0ff;
  while( h >= 8 )
    6736:	9d 2d       	mov	r25, r13
    6738:	eb cf       	rjmp	.-42     	; 0x6710 <u8g_DrawVLine+0x76>

0000673a <u8g_draw_box>:
  y--;
  u8g_draw_hline(u8g, xtmp, y, w);
}

void u8g_draw_box(u8g_t *u8g, u8g_uint_t x, u8g_uint_t y, u8g_uint_t w, u8g_uint_t h)
{
    673a:	4f 92       	push	r4
    673c:	5f 92       	push	r5
    673e:	7f 92       	push	r7
    6740:	8f 92       	push	r8
    6742:	9f 92       	push	r9
    6744:	af 92       	push	r10
    6746:	bf 92       	push	r11
    6748:	cf 92       	push	r12
    674a:	df 92       	push	r13
    674c:	ef 92       	push	r14
    674e:	ff 92       	push	r15
    6750:	0f 93       	push	r16
    6752:	1f 93       	push	r17
    6754:	cf 93       	push	r28
    6756:	df 93       	push	r29
    6758:	1f 92       	push	r1
    675a:	cd b7       	in	r28, 0x3d	; 61
    675c:	de b7       	in	r29, 0x3e	; 62
    675e:	2c 01       	movw	r4, r24
    6760:	96 2e       	mov	r9, r22
    6762:	d4 2e       	mov	r13, r20
    6764:	b2 2e       	mov	r11, r18
    6766:	c0 2e       	mov	r12, r16
    6768:	88 e0       	ldi	r24, 0x08	; 8
    676a:	a8 2e       	mov	r10, r24
    676c:	a6 0e       	add	r10, r22
    676e:	88 ef       	ldi	r24, 0xF8	; 248
    6770:	82 0f       	add	r24, r18
    6772:	88 7f       	andi	r24, 0xF8	; 248
    6774:	a8 0e       	add	r10, r24
    6776:	82 2f       	mov	r24, r18
    6778:	87 70       	andi	r24, 0x07	; 7
    677a:	88 2e       	mov	r8, r24
    w-=8;
    x+=8;
  }
  if ( w != 0 )
  {
    w ^=7;
    677c:	97 e0       	ldi	r25, 0x07	; 7
    677e:	79 2e       	mov	r7, r25
    w++;
    pixel <<= w&7;
    6780:	ee 24       	eor	r14, r14
    6782:	ea 94       	dec	r14
    6784:	f1 2c       	mov	r15, r1
#include "u8g.h"

void u8g_draw_hline(u8g_t *u8g, u8g_uint_t x, u8g_uint_t y, u8g_uint_t w)
{
  uint8_t pixel = 0x0ff;
  while( w >= 8 )
    6786:	97 e0       	ldi	r25, 0x07	; 7
    6788:	9b 15       	cp	r25, r11
    678a:	b0 f5       	brcc	.+108    	; 0x67f8 <u8g_draw_box+0xbe>
    678c:	3b 2d       	mov	r19, r11
    678e:	19 2d       	mov	r17, r9
  {
    u8g_Draw8Pixel(u8g, x, y, 0, pixel);
    6790:	0f ef       	ldi	r16, 0xFF	; 255
    6792:	20 e0       	ldi	r18, 0x00	; 0
    6794:	4d 2d       	mov	r20, r13
    6796:	61 2f       	mov	r22, r17
    6798:	c2 01       	movw	r24, r4
    679a:	39 83       	std	Y+1, r19	; 0x01
    679c:	0e 94 c7 31 	call	0x638e	; 0x638e <u8g_Draw8Pixel>
    w-=8;
    67a0:	39 81       	ldd	r19, Y+1	; 0x01
    67a2:	38 50       	subi	r19, 0x08	; 8
    x+=8;
    67a4:	18 5f       	subi	r17, 0xF8	; 248
#include "u8g.h"

void u8g_draw_hline(u8g_t *u8g, u8g_uint_t x, u8g_uint_t y, u8g_uint_t w)
{
  uint8_t pixel = 0x0ff;
  while( w >= 8 )
    67a6:	38 30       	cpi	r19, 0x08	; 8
    67a8:	98 f7       	brcc	.-26     	; 0x6790 <u8g_draw_box+0x56>
    67aa:	08 2d       	mov	r16, r8
  {
    u8g_Draw8Pixel(u8g, x, y, 0, pixel);
    w-=8;
    x+=8;
    67ac:	6a 2d       	mov	r22, r10
  }
  if ( w != 0 )
    67ae:	00 23       	and	r16, r16
    67b0:	79 f0       	breq	.+30     	; 0x67d0 <u8g_draw_box+0x96>
  {
    w ^=7;
    67b2:	07 25       	eor	r16, r7
    w++;
    67b4:	0f 5f       	subi	r16, 0xFF	; 255
    pixel <<= w&7;
    67b6:	07 70       	andi	r16, 0x07	; 7
    67b8:	f7 01       	movw	r30, r14
    67ba:	02 c0       	rjmp	.+4      	; 0x67c0 <u8g_draw_box+0x86>
    67bc:	ee 0f       	add	r30, r30
    67be:	ff 1f       	adc	r31, r31
    67c0:	0a 95       	dec	r16
    67c2:	e2 f7       	brpl	.-8      	; 0x67bc <u8g_draw_box+0x82>
    67c4:	8f 01       	movw	r16, r30
    u8g_Draw8Pixel(u8g, x, y, 0, pixel);
    67c6:	20 e0       	ldi	r18, 0x00	; 0
    67c8:	4d 2d       	mov	r20, r13
    67ca:	c2 01       	movw	r24, r4
    67cc:	0e 94 c7 31 	call	0x638e	; 0x638e <u8g_Draw8Pixel>
void u8g_draw_box(u8g_t *u8g, u8g_uint_t x, u8g_uint_t y, u8g_uint_t w, u8g_uint_t h)
{
  do
  { 
    u8g_draw_hline(u8g, x, y, w);
    y++;    
    67d0:	d3 94       	inc	r13
    h--;
    67d2:	ca 94       	dec	r12
  } while( h != 0 );
    67d4:	c1 f6       	brne	.-80     	; 0x6786 <u8g_draw_box+0x4c>
}
    67d6:	0f 90       	pop	r0
    67d8:	df 91       	pop	r29
    67da:	cf 91       	pop	r28
    67dc:	1f 91       	pop	r17
    67de:	0f 91       	pop	r16
    67e0:	ff 90       	pop	r15
    67e2:	ef 90       	pop	r14
    67e4:	df 90       	pop	r13
    67e6:	cf 90       	pop	r12
    67e8:	bf 90       	pop	r11
    67ea:	af 90       	pop	r10
    67ec:	9f 90       	pop	r9
    67ee:	8f 90       	pop	r8
    67f0:	7f 90       	pop	r7
    67f2:	5f 90       	pop	r5
    67f4:	4f 90       	pop	r4
    67f6:	08 95       	ret
#include "u8g.h"

void u8g_draw_hline(u8g_t *u8g, u8g_uint_t x, u8g_uint_t y, u8g_uint_t w)
{
  uint8_t pixel = 0x0ff;
  while( w >= 8 )
    67f8:	0b 2d       	mov	r16, r11
    67fa:	69 2d       	mov	r22, r9
    67fc:	d8 cf       	rjmp	.-80     	; 0x67ae <u8g_draw_box+0x74>

000067fe <u8g_DrawBox>:
  } while( h != 0 );
}

/* restrictions: h > 0 */
void u8g_DrawBox(u8g_t *u8g, u8g_uint_t x, u8g_uint_t y, u8g_uint_t w, u8g_uint_t h)
{
    67fe:	df 92       	push	r13
    6800:	ef 92       	push	r14
    6802:	ff 92       	push	r15
    6804:	0f 93       	push	r16
    6806:	1f 93       	push	r17
    6808:	cf 93       	push	r28
    680a:	df 93       	push	r29
    680c:	ec 01       	movw	r28, r24
    680e:	16 2f       	mov	r17, r22
    6810:	f4 2e       	mov	r15, r20
    6812:	e2 2e       	mov	r14, r18
  if ( u8g_IsBBXIntersection(u8g, x, y, w, h) == 0 )
    6814:	0e 94 1d 34 	call	0x683a	; 0x683a <u8g_IsBBXIntersection>
    6818:	88 23       	and	r24, r24
    681a:	31 f0       	breq	.+12     	; 0x6828 <u8g_DrawBox+0x2a>
    return;
  u8g_draw_box(u8g, x, y, w, h);
    681c:	2e 2d       	mov	r18, r14
    681e:	4f 2d       	mov	r20, r15
    6820:	61 2f       	mov	r22, r17
    6822:	ce 01       	movw	r24, r28
    6824:	0e 94 9d 33 	call	0x673a	; 0x673a <u8g_draw_box>
}
    6828:	df 91       	pop	r29
    682a:	cf 91       	pop	r28
    682c:	1f 91       	pop	r17
    682e:	0f 91       	pop	r16
    6830:	ff 90       	pop	r15
    6832:	ef 90       	pop	r14
    6834:	df 90       	pop	r13
    6836:	08 95       	ret

00006838 <u8g_state_dummy_cb>:

#include <stddef.h>
#include "u8g.h"

void u8g_state_dummy_cb(uint8_t msg)
{
    6838:	08 95       	ret

0000683a <u8g_IsBBXIntersection>:
  }
}


uint8_t u8g_IsBBXIntersection(u8g_t *u8g, u8g_uint_t x, u8g_uint_t y, u8g_uint_t w, u8g_uint_t h)
{
    683a:	0f 93       	push	r16
    683c:	fc 01       	movw	r30, r24
  register u8g_uint_t tmp;
  tmp = y;
  tmp += h;
    683e:	01 50       	subi	r16, 0x01	; 1
  tmp--;
    6840:	04 0f       	add	r16, r20
  if ( u8g_is_intersection_decision_tree(u8g->current_page.y0, u8g->current_page.y1, y, tmp) == 0 )
    6842:	84 a9       	ldd	r24, Z+52	; 0x34
//static uint8_t u8g_is_intersection_decision_tree(u8g_uint_t a0, u8g_uint_t a1, u8g_uint_t v0, u8g_uint_t v1) U8G_ALWAYS_INLINE;
static uint8_t U8G_ALWAYS_INLINE u8g_is_intersection_decision_tree(u8g_uint_t a0, u8g_uint_t a1, u8g_uint_t v0, u8g_uint_t v1) 
{
  /* surprisingly the macro leads to larger code */
  /* return U8G_IS_INTERSECTION_MACRO(a0,a1,v0,v1); */
  if ( v0 <= a1 )
    6844:	96 a9       	ldd	r25, Z+54	; 0x36
    6846:	94 17       	cp	r25, r20
    6848:	68 f0       	brcs	.+26     	; 0x6864 <u8g_IsBBXIntersection+0x2a>
  {
    if ( v1 >= a0 )
    684a:	08 17       	cp	r16, r24
    684c:	68 f0       	brcs	.+26     	; 0x6868 <u8g_IsBBXIntersection+0x2e>
  tmp--;
  if ( u8g_is_intersection_decision_tree(u8g->current_page.y0, u8g->current_page.y1, y, tmp) == 0 )
    return 0; 
  
  tmp = x;
  tmp += w;
    684e:	21 50       	subi	r18, 0x01	; 1
  tmp--;
    6850:	26 0f       	add	r18, r22
  return u8g_is_intersection_decision_tree(u8g->current_page.x0, u8g->current_page.x1, x, tmp);
    6852:	83 a9       	ldd	r24, Z+51	; 0x33
//static uint8_t u8g_is_intersection_decision_tree(u8g_uint_t a0, u8g_uint_t a1, u8g_uint_t v0, u8g_uint_t v1) U8G_ALWAYS_INLINE;
static uint8_t U8G_ALWAYS_INLINE u8g_is_intersection_decision_tree(u8g_uint_t a0, u8g_uint_t a1, u8g_uint_t v0, u8g_uint_t v1) 
{
  /* surprisingly the macro leads to larger code */
  /* return U8G_IS_INTERSECTION_MACRO(a0,a1,v0,v1); */
  if ( v0 <= a1 )
    6854:	95 a9       	ldd	r25, Z+53	; 0x35
    6856:	96 17       	cp	r25, r22
    6858:	60 f0       	brcs	.+24     	; 0x6872 <u8g_IsBBXIntersection+0x38>
  {
    if ( v1 >= a0 )
    685a:	28 17       	cp	r18, r24
    685c:	60 f0       	brcs	.+24     	; 0x6876 <u8g_IsBBXIntersection+0x3c>
    {
      return 1;
    685e:	81 e0       	ldi	r24, 0x01	; 1
  
  tmp = x;
  tmp += w;
  tmp--;
  return u8g_is_intersection_decision_tree(u8g->current_page.x0, u8g->current_page.x1, x, tmp);
}
    6860:	0f 91       	pop	r16
    6862:	08 95       	ret
      }
    }
  }
  else
  {
    if ( v1 >= a0 )
    6864:	08 17       	cp	r16, r24
    6866:	10 f0       	brcs	.+4      	; 0x686c <u8g_IsBBXIntersection+0x32>
    {
      if ( v0 > v1 )
    6868:	04 17       	cp	r16, r20
    686a:	88 f3       	brcs	.-30     	; 0x684e <u8g_IsBBXIntersection+0x14>
  register u8g_uint_t tmp;
  tmp = y;
  tmp += h;
  tmp--;
  if ( u8g_is_intersection_decision_tree(u8g->current_page.y0, u8g->current_page.y1, y, tmp) == 0 )
    return 0; 
    686c:	80 e0       	ldi	r24, 0x00	; 0
  
  tmp = x;
  tmp += w;
  tmp--;
  return u8g_is_intersection_decision_tree(u8g->current_page.x0, u8g->current_page.x1, x, tmp);
}
    686e:	0f 91       	pop	r16
    6870:	08 95       	ret
      }
    }
  }
  else
  {
    if ( v1 >= a0 )
    6872:	28 17       	cp	r18, r24
    6874:	d8 f3       	brcs	.-10     	; 0x686c <u8g_IsBBXIntersection+0x32>
    {
      if ( v0 > v1 )
    6876:	81 e0       	ldi	r24, 0x01	; 1
    6878:	26 17       	cp	r18, r22
    687a:	c0 f7       	brcc	.-16     	; 0x686c <u8g_IsBBXIntersection+0x32>
  
  tmp = x;
  tmp += w;
  tmp--;
  return u8g_is_intersection_decision_tree(u8g->current_page.x0, u8g->current_page.x1, x, tmp);
}
    687c:	0f 91       	pop	r16
    687e:	08 95       	ret

00006880 <u8g_InitCom>:

#include "u8g.h"

uint8_t u8g_InitCom(u8g_t *u8g, u8g_dev_t *dev, uint8_t clk_cycle_time)
{
  return dev->com_fn(u8g, U8G_COM_MSG_INIT, clk_cycle_time, NULL);
    6880:	db 01       	movw	r26, r22
    6882:	14 96       	adiw	r26, 0x04	; 4
    6884:	ed 91       	ld	r30, X+
    6886:	fc 91       	ld	r31, X
    6888:	15 97       	sbiw	r26, 0x05	; 5
    688a:	20 e0       	ldi	r18, 0x00	; 0
    688c:	30 e0       	ldi	r19, 0x00	; 0
    688e:	61 e0       	ldi	r22, 0x01	; 1
    6890:	09 94       	ijmp

00006892 <u8g_SetChipSelect>:
}

/* cs contains the chip number, which should be enabled */
void u8g_SetChipSelect(u8g_t *u8g, u8g_dev_t *dev, uint8_t cs)
{
  dev->com_fn(u8g, U8G_COM_MSG_CHIP_SELECT, cs, NULL);
    6892:	db 01       	movw	r26, r22
    6894:	14 96       	adiw	r26, 0x04	; 4
    6896:	ed 91       	ld	r30, X+
    6898:	fc 91       	ld	r31, X
    689a:	15 97       	sbiw	r26, 0x05	; 5
    689c:	20 e0       	ldi	r18, 0x00	; 0
    689e:	30 e0       	ldi	r19, 0x00	; 0
    68a0:	63 e0       	ldi	r22, 0x03	; 3
    68a2:	09 94       	ijmp

000068a4 <u8g_SetAddress>:
}


void u8g_SetAddress(u8g_t *u8g, u8g_dev_t *dev, uint8_t address)
{
  dev->com_fn(u8g, U8G_COM_MSG_ADDRESS, address, NULL);
    68a4:	db 01       	movw	r26, r22
    68a6:	14 96       	adiw	r26, 0x04	; 4
    68a8:	ed 91       	ld	r30, X+
    68aa:	fc 91       	ld	r31, X
    68ac:	15 97       	sbiw	r26, 0x05	; 5
    68ae:	20 e0       	ldi	r18, 0x00	; 0
    68b0:	30 e0       	ldi	r19, 0x00	; 0
    68b2:	62 e0       	ldi	r22, 0x02	; 2
    68b4:	09 94       	ijmp

000068b6 <u8g_WriteByte>:
}

uint8_t u8g_WriteByte(u8g_t *u8g, u8g_dev_t *dev, uint8_t val)
{
  return dev->com_fn(u8g, U8G_COM_MSG_WRITE_BYTE, val, NULL);
    68b6:	db 01       	movw	r26, r22
    68b8:	14 96       	adiw	r26, 0x04	; 4
    68ba:	ed 91       	ld	r30, X+
    68bc:	fc 91       	ld	r31, X
    68be:	15 97       	sbiw	r26, 0x05	; 5
    68c0:	20 e0       	ldi	r18, 0x00	; 0
    68c2:	30 e0       	ldi	r19, 0x00	; 0
    68c4:	65 e0       	ldi	r22, 0x05	; 5
    68c6:	09 94       	ijmp

000068c8 <u8g_WriteSequence>:
}

uint8_t u8g_WriteSequence(u8g_t *u8g, u8g_dev_t *dev, uint8_t cnt, uint8_t *seq)
{
  return dev->com_fn(u8g, U8G_COM_MSG_WRITE_SEQ, cnt, seq);
    68c8:	db 01       	movw	r26, r22
    68ca:	14 96       	adiw	r26, 0x04	; 4
    68cc:	ed 91       	ld	r30, X+
    68ce:	fc 91       	ld	r31, X
    68d0:	15 97       	sbiw	r26, 0x05	; 5
    68d2:	66 e0       	ldi	r22, 0x06	; 6
    68d4:	09 94       	ijmp

000068d6 <u8g_WriteEscSeqP>:
#define U8G_ESC_255 255, 255
#define U8G_ESC_RST(x) 255, (0xc0 | ((x)&0x0f))

*/
uint8_t u8g_WriteEscSeqP(u8g_t *u8g, u8g_dev_t *dev, const uint8_t *esc_seq)
{
    68d6:	af 92       	push	r10
    68d8:	bf 92       	push	r11
    68da:	cf 92       	push	r12
    68dc:	df 92       	push	r13
    68de:	ef 92       	push	r14
    68e0:	ff 92       	push	r15
    68e2:	0f 93       	push	r16
    68e4:	1f 93       	push	r17
    68e6:	cf 93       	push	r28
    68e8:	df 93       	push	r29
    68ea:	1f 92       	push	r1
    68ec:	cd b7       	in	r28, 0x3d	; 61
    68ee:	de b7       	in	r29, 0x3e	; 62
    68f0:	8c 01       	movw	r16, r24
    68f2:	7b 01       	movw	r14, r22
    68f4:	5a 01       	movw	r10, r20
  uint8_t is_escape = 0;
    68f6:	80 e0       	ldi	r24, 0x00	; 0
  uint8_t value;
  for(;;)
  {
    value = u8g_pgm_read(esc_seq);
    68f8:	f5 01       	movw	r30, r10
    68fa:	54 91       	lpm	r21, Z
    if ( is_escape == 0 )
    68fc:	81 11       	cpse	r24, r1
    68fe:	17 c0       	rjmp	.+46     	; 0x692e <u8g_WriteEscSeqP+0x58>
    {
      if ( value != 255 )
    6900:	5f 3f       	cpi	r21, 0xFF	; 255
    6902:	51 f1       	breq	.+84     	; 0x6958 <u8g_WriteEscSeqP+0x82>
  dev->com_fn(u8g, U8G_COM_MSG_ADDRESS, address, NULL);
}

uint8_t u8g_WriteByte(u8g_t *u8g, u8g_dev_t *dev, uint8_t val)
{
  return dev->com_fn(u8g, U8G_COM_MSG_WRITE_BYTE, val, NULL);
    6904:	d7 01       	movw	r26, r14
    6906:	14 96       	adiw	r26, 0x04	; 4
    6908:	ed 91       	ld	r30, X+
    690a:	fc 91       	ld	r31, X
    690c:	15 97       	sbiw	r26, 0x05	; 5
    690e:	20 e0       	ldi	r18, 0x00	; 0
    6910:	30 e0       	ldi	r19, 0x00	; 0
    6912:	45 2f       	mov	r20, r21
    6914:	65 e0       	ldi	r22, 0x05	; 5
    6916:	c8 01       	movw	r24, r16
    6918:	09 95       	icall
    value = u8g_pgm_read(esc_seq);
    if ( is_escape == 0 )
    {
      if ( value != 255 )
      {
        if ( u8g_WriteByte(u8g, dev, value) == 0 )
    691a:	88 23       	and	r24, r24
    691c:	61 f1       	breq	.+88     	; 0x6976 <u8g_WriteEscSeqP+0xa0>
      }
      else if ( value <= 127 )
      {
        u8g_Delay(value);
      }
      is_escape = 0;
    691e:	80 e0       	ldi	r24, 0x00	; 0
    }
    esc_seq++;
    6920:	bf ef       	ldi	r27, 0xFF	; 255
    6922:	ab 1a       	sub	r10, r27
    6924:	bb 0a       	sbc	r11, r27
{
  uint8_t is_escape = 0;
  uint8_t value;
  for(;;)
  {
    value = u8g_pgm_read(esc_seq);
    6926:	f5 01       	movw	r30, r10
    6928:	54 91       	lpm	r21, Z
    if ( is_escape == 0 )
    692a:	88 23       	and	r24, r24
    692c:	49 f3       	breq	.-46     	; 0x6900 <u8g_WriteEscSeqP+0x2a>
        is_escape = 1;
      }
    }
    else
    {
      if ( value == 255 )
    692e:	5f 3f       	cpi	r21, 0xFF	; 255
    6930:	a9 f0       	breq	.+42     	; 0x695c <u8g_WriteEscSeqP+0x86>
      {
        if ( u8g_WriteByte(u8g, dev, value) == 0 )
          return 0;
      }
      else if ( value == 254 )
    6932:	5e 3f       	cpi	r21, 0xFE	; 254
    6934:	09 f4       	brne	.+2      	; 0x6938 <u8g_WriteEscSeqP+0x62>
    6936:	61 c0       	rjmp	.+194    	; 0x69fa <u8g_WriteEscSeqP+0x124>
      {
        break;
      }
      else if ( value >= 0x0f0 )
    6938:	50 3f       	cpi	r21, 0xF0	; 240
    693a:	88 f7       	brcc	.-30     	; 0x691e <u8g_WriteEscSeqP+0x48>
      {
        /* not yet used, do nothing */
      }
      else if ( value >= 0xe0  )
    693c:	50 3e       	cpi	r21, 0xE0	; 224
    693e:	e8 f4       	brcc	.+58     	; 0x697a <u8g_WriteEscSeqP+0xa4>
      {
        u8g_SetAddress(u8g, dev, value & 0x0f);
      }
      else if ( value >= 0xd0 )
    6940:	50 3d       	cpi	r21, 0xD0	; 208
    6942:	48 f5       	brcc	.+82     	; 0x6996 <u8g_WriteEscSeqP+0xc0>
      {
        u8g_SetChipSelect(u8g, dev, value & 0x0f);
      }
      else if ( value >= 0xc0 )
    6944:	50 3c       	cpi	r21, 0xC0	; 192
    6946:	a0 f5       	brcc	.+104    	; 0x69b0 <u8g_WriteEscSeqP+0xda>
      else if ( value >= 0xbe )
      {
	/* not yet implemented */
        /* u8g_SetVCC(u8g, dev, value & 0x01); */
      }
      else if ( value <= 127 )
    6948:	57 fd       	sbrc	r21, 7
    694a:	e9 cf       	rjmp	.-46     	; 0x691e <u8g_WriteEscSeqP+0x48>
      {
        u8g_Delay(value);
    694c:	85 2f       	mov	r24, r21
    694e:	90 e0       	ldi	r25, 0x00	; 0
    6950:	0e 94 b8 2d 	call	0x5b70	; 0x5b70 <u8g_Delay>
      }
      is_escape = 0;
    6954:	80 e0       	ldi	r24, 0x00	; 0
    6956:	e4 cf       	rjmp	.-56     	; 0x6920 <u8g_WriteEscSeqP+0x4a>
        if ( u8g_WriteByte(u8g, dev, value) == 0 )
          return 0;
      }
      else
      {
        is_escape = 1;
    6958:	81 e0       	ldi	r24, 0x01	; 1
    695a:	e2 cf       	rjmp	.-60     	; 0x6920 <u8g_WriteEscSeqP+0x4a>
  dev->com_fn(u8g, U8G_COM_MSG_ADDRESS, address, NULL);
}

uint8_t u8g_WriteByte(u8g_t *u8g, u8g_dev_t *dev, uint8_t val)
{
  return dev->com_fn(u8g, U8G_COM_MSG_WRITE_BYTE, val, NULL);
    695c:	d7 01       	movw	r26, r14
    695e:	14 96       	adiw	r26, 0x04	; 4
    6960:	ed 91       	ld	r30, X+
    6962:	fc 91       	ld	r31, X
    6964:	15 97       	sbiw	r26, 0x05	; 5
    6966:	20 e0       	ldi	r18, 0x00	; 0
    6968:	30 e0       	ldi	r19, 0x00	; 0
    696a:	4f ef       	ldi	r20, 0xFF	; 255
    696c:	65 e0       	ldi	r22, 0x05	; 5
    696e:	c8 01       	movw	r24, r16
    6970:	09 95       	icall
    value = u8g_pgm_read(esc_seq);
    if ( is_escape == 0 )
    {
      if ( value != 255 )
      {
        if ( u8g_WriteByte(u8g, dev, value) == 0 )
    6972:	81 11       	cpse	r24, r1
    6974:	d4 cf       	rjmp	.-88     	; 0x691e <u8g_WriteEscSeqP+0x48>
          return 0;
    6976:	80 e0       	ldi	r24, 0x00	; 0
    6978:	41 c0       	rjmp	.+130    	; 0x69fc <u8g_WriteEscSeqP+0x126>
      {
        /* not yet used, do nothing */
      }
      else if ( value >= 0xe0  )
      {
        u8g_SetAddress(u8g, dev, value & 0x0f);
    697a:	45 2f       	mov	r20, r21
    697c:	4f 70       	andi	r20, 0x0F	; 15
}


void u8g_SetAddress(u8g_t *u8g, u8g_dev_t *dev, uint8_t address)
{
  dev->com_fn(u8g, U8G_COM_MSG_ADDRESS, address, NULL);
    697e:	d7 01       	movw	r26, r14
    6980:	14 96       	adiw	r26, 0x04	; 4
    6982:	ed 91       	ld	r30, X+
    6984:	fc 91       	ld	r31, X
    6986:	15 97       	sbiw	r26, 0x05	; 5
    6988:	20 e0       	ldi	r18, 0x00	; 0
    698a:	30 e0       	ldi	r19, 0x00	; 0
    698c:	62 e0       	ldi	r22, 0x02	; 2
    698e:	c8 01       	movw	r24, r16
    6990:	09 95       	icall
      }
      else if ( value <= 127 )
      {
        u8g_Delay(value);
      }
      is_escape = 0;
    6992:	80 e0       	ldi	r24, 0x00	; 0
    6994:	c5 cf       	rjmp	.-118    	; 0x6920 <u8g_WriteEscSeqP+0x4a>
      {
        u8g_SetAddress(u8g, dev, value & 0x0f);
      }
      else if ( value >= 0xd0 )
      {
        u8g_SetChipSelect(u8g, dev, value & 0x0f);
    6996:	45 2f       	mov	r20, r21
    6998:	4f 70       	andi	r20, 0x0F	; 15
}

/* cs contains the chip number, which should be enabled */
void u8g_SetChipSelect(u8g_t *u8g, u8g_dev_t *dev, uint8_t cs)
{
  dev->com_fn(u8g, U8G_COM_MSG_CHIP_SELECT, cs, NULL);
    699a:	d7 01       	movw	r26, r14
    699c:	14 96       	adiw	r26, 0x04	; 4
    699e:	ed 91       	ld	r30, X+
    69a0:	fc 91       	ld	r31, X
    69a2:	15 97       	sbiw	r26, 0x05	; 5
    69a4:	20 e0       	ldi	r18, 0x00	; 0
    69a6:	30 e0       	ldi	r19, 0x00	; 0
    69a8:	63 e0       	ldi	r22, 0x03	; 3
    69aa:	c8 01       	movw	r24, r16
    69ac:	09 95       	icall
    69ae:	b7 cf       	rjmp	.-146    	; 0x691e <u8g_WriteEscSeqP+0x48>
}

void u8g_SetResetLow(u8g_t *u8g, u8g_dev_t *dev)
{
  dev->com_fn(u8g, U8G_COM_MSG_RESET, 0, NULL);
    69b0:	d7 01       	movw	r26, r14
    69b2:	14 96       	adiw	r26, 0x04	; 4
    69b4:	ed 91       	ld	r30, X+
    69b6:	fc 91       	ld	r31, X
    69b8:	15 97       	sbiw	r26, 0x05	; 5
    69ba:	20 e0       	ldi	r18, 0x00	; 0
    69bc:	30 e0       	ldi	r19, 0x00	; 0
    69be:	40 e0       	ldi	r20, 0x00	; 0
    69c0:	64 e0       	ldi	r22, 0x04	; 4
    69c2:	c8 01       	movw	r24, r16
    69c4:	59 83       	std	Y+1, r21	; 0x01
    69c6:	09 95       	icall
      }
      else if ( value >= 0xc0 )
      {
        u8g_SetResetLow(u8g, dev);
        value &= 0x0f;
        value <<= 4;
    69c8:	59 81       	ldd	r21, Y+1	; 0x01
    69ca:	52 95       	swap	r21
    69cc:	50 7f       	andi	r21, 0xF0	; 240
        value+=2;
    69ce:	5e 5f       	subi	r21, 0xFE	; 254
        u8g_Delay(value);
    69d0:	c5 2e       	mov	r12, r21
    69d2:	d1 2c       	mov	r13, r1
    69d4:	c6 01       	movw	r24, r12
    69d6:	0e 94 b8 2d 	call	0x5b70	; 0x5b70 <u8g_Delay>
  dev->com_fn(u8g, U8G_COM_MSG_RESET, 0, NULL);
}

void u8g_SetResetHigh(u8g_t *u8g, u8g_dev_t *dev)
{
  dev->com_fn(u8g, U8G_COM_MSG_RESET, 1, NULL);
    69da:	d7 01       	movw	r26, r14
    69dc:	14 96       	adiw	r26, 0x04	; 4
    69de:	ed 91       	ld	r30, X+
    69e0:	fc 91       	ld	r31, X
    69e2:	15 97       	sbiw	r26, 0x05	; 5
    69e4:	20 e0       	ldi	r18, 0x00	; 0
    69e6:	30 e0       	ldi	r19, 0x00	; 0
    69e8:	41 e0       	ldi	r20, 0x01	; 1
    69ea:	64 e0       	ldi	r22, 0x04	; 4
    69ec:	c8 01       	movw	r24, r16
    69ee:	09 95       	icall
        value &= 0x0f;
        value <<= 4;
        value+=2;
        u8g_Delay(value);
        u8g_SetResetHigh(u8g, dev);
        u8g_Delay(value);
    69f0:	c6 01       	movw	r24, r12
    69f2:	0e 94 b8 2d 	call	0x5b70	; 0x5b70 <u8g_Delay>
      }
      else if ( value <= 127 )
      {
        u8g_Delay(value);
      }
      is_escape = 0;
    69f6:	80 e0       	ldi	r24, 0x00	; 0
    69f8:	93 cf       	rjmp	.-218    	; 0x6920 <u8g_WriteEscSeqP+0x4a>
    }
    esc_seq++;
  }
  return 1;
    69fa:	81 e0       	ldi	r24, 0x01	; 1
}
    69fc:	0f 90       	pop	r0
    69fe:	df 91       	pop	r29
    6a00:	cf 91       	pop	r28
    6a02:	1f 91       	pop	r17
    6a04:	0f 91       	pop	r16
    6a06:	ff 90       	pop	r15
    6a08:	ef 90       	pop	r14
    6a0a:	df 90       	pop	r13
    6a0c:	cf 90       	pop	r12
    6a0e:	bf 90       	pop	r11
    6a10:	af 90       	pop	r10
    6a12:	08 95       	ret

00006a14 <u8g_com_atmega_hw_spi_fn>:
  return  SPDR;
}


uint8_t u8g_com_atmega_hw_spi_fn(u8g_t *u8g, uint8_t msg, uint8_t arg_val, void *arg_ptr)
{
    6a14:	0f 93       	push	r16
    6a16:	1f 93       	push	r17
    6a18:	cf 93       	push	r28
    6a1a:	df 93       	push	r29
    6a1c:	ec 01       	movw	r28, r24
    6a1e:	d9 01       	movw	r26, r18
  switch(msg)
    6a20:	06 2f       	mov	r16, r22
    6a22:	10 e0       	ldi	r17, 0x00	; 0
    6a24:	01 50       	subi	r16, 0x01	; 1
    6a26:	11 09       	sbc	r17, r1
    6a28:	07 30       	cpi	r16, 0x07	; 7
    6a2a:	11 05       	cpc	r17, r1
    6a2c:	b8 f4       	brcc	.+46     	; 0x6a5c <u8g_com_atmega_hw_spi_fn+0x48>
    6a2e:	07 55       	subi	r16, 0x57	; 87
    6a30:	1f 4f       	sbci	r17, 0xFF	; 255
    6a32:	f8 01       	movw	r30, r16
    6a34:	0c 94 be 35 	jmp	0x6b7c	; 0x6b7c <__tablejump2__>
  SPDR = data;
  /* wait for transmission */
  while (!(SPSR & (1<<SPIF))) 
    ;
  /* clear the SPIF flag by reading SPDR */
  return  SPDR;
    6a38:	8e b5       	in	r24, 0x2e	; 46
      {
        register uint8_t *ptr = arg_ptr;
        while( arg_val > 0 )
        {
          u8g_atmega_spi_out(u8g_pgm_read(ptr));
          ptr++;
    6a3a:	11 96       	adiw	r26, 0x01	; 1
          arg_val--;
    6a3c:	41 50       	subi	r20, 0x01	; 1
      }
      break;
    case U8G_COM_MSG_WRITE_SEQ_P:
      {
        register uint8_t *ptr = arg_ptr;
        while( arg_val > 0 )
    6a3e:	44 23       	and	r20, r20
    6a40:	69 f0       	breq	.+26     	; 0x6a5c <u8g_com_atmega_hw_spi_fn+0x48>
        {
          u8g_atmega_spi_out(u8g_pgm_read(ptr));
    6a42:	fd 01       	movw	r30, r26
    6a44:	84 91       	lpm	r24, Z

static uint8_t u8g_atmega_spi_out(uint8_t data)
{
  /* unsigned char x = 100; */
  /* send data */
  SPDR = data;
    6a46:	8e bd       	out	0x2e, r24	; 46
  /* wait for transmission */
  while (!(SPSR & (1<<SPIF))) 
    6a48:	0d b4       	in	r0, 0x2d	; 45
    6a4a:	07 fe       	sbrs	r0, 7
    6a4c:	fd cf       	rjmp	.-6      	; 0x6a48 <u8g_com_atmega_hw_spi_fn+0x34>
    6a4e:	f4 cf       	rjmp	.-24     	; 0x6a38 <u8g_com_atmega_hw_spi_fn+0x24>
      u8g_SetPILevel(u8g, U8G_PI_A0, arg_val);
      break;

    case U8G_COM_MSG_CHIP_SELECT:
      
      if ( arg_val == 0 )
    6a50:	41 11       	cpse	r20, r1
    6a52:	5d c0       	rjmp	.+186    	; 0x6b0e <u8g_com_atmega_hw_spi_fn+0xfa>
      {
        /* disable */
        u8g_SetPILevel(u8g, U8G_PI_CS, 1);
    6a54:	41 e0       	ldi	r20, 0x01	; 1
    6a56:	62 e0       	ldi	r22, 0x02	; 2
    6a58:	0e 94 6e 2d 	call	0x5adc	; 0x5adc <u8g_SetPILevel>
        }
      }
      break;
  }
  return 1;
}
    6a5c:	81 e0       	ldi	r24, 0x01	; 1
    6a5e:	df 91       	pop	r29
    6a60:	cf 91       	pop	r28
    6a62:	1f 91       	pop	r17
    6a64:	0f 91       	pop	r16
    6a66:	08 95       	ret

static uint8_t u8g_atmega_spi_out(uint8_t data)
{
  /* unsigned char x = 100; */
  /* send data */
  SPDR = data;
    6a68:	4e bd       	out	0x2e, r20	; 46
  /* wait for transmission */
  while (!(SPSR & (1<<SPIF))) 
    6a6a:	0d b4       	in	r0, 0x2d	; 45
    6a6c:	07 fe       	sbrs	r0, 7
    6a6e:	fd cf       	rjmp	.-6      	; 0x6a6a <u8g_com_atmega_hw_spi_fn+0x56>
    ;
  /* clear the SPIF flag by reading SPDR */
  return  SPDR;
    6a70:	8e b5       	in	r24, 0x2e	; 46
        }
      }
      break;
  }
  return 1;
}
    6a72:	81 e0       	ldi	r24, 0x01	; 1
    6a74:	df 91       	pop	r29
    6a76:	cf 91       	pop	r28
    6a78:	1f 91       	pop	r17
    6a7a:	0f 91       	pop	r16
    6a7c:	08 95       	ret
      break;
    
    case U8G_COM_MSG_WRITE_SEQ:
      {
        register uint8_t *ptr = arg_ptr;
        while( arg_val > 0 )
    6a7e:	44 23       	and	r20, r20
    6a80:	69 f3       	breq	.-38     	; 0x6a5c <u8g_com_atmega_hw_spi_fn+0x48>
    6a82:	f9 01       	movw	r30, r18
        {
          u8g_atmega_spi_out(*ptr++);
    6a84:	81 91       	ld	r24, Z+

static uint8_t u8g_atmega_spi_out(uint8_t data)
{
  /* unsigned char x = 100; */
  /* send data */
  SPDR = data;
    6a86:	8e bd       	out	0x2e, r24	; 46
  /* wait for transmission */
  while (!(SPSR & (1<<SPIF))) 
    6a88:	0d b4       	in	r0, 0x2d	; 45
    6a8a:	07 fe       	sbrs	r0, 7
    6a8c:	fd cf       	rjmp	.-6      	; 0x6a88 <u8g_com_atmega_hw_spi_fn+0x74>
    ;
  /* clear the SPIF flag by reading SPDR */
  return  SPDR;
    6a8e:	8e b5       	in	r24, 0x2e	; 46
      {
        register uint8_t *ptr = arg_ptr;
        while( arg_val > 0 )
        {
          u8g_atmega_spi_out(*ptr++);
          arg_val--;
    6a90:	41 50       	subi	r20, 0x01	; 1
      break;
    
    case U8G_COM_MSG_WRITE_SEQ:
      {
        register uint8_t *ptr = arg_ptr;
        while( arg_val > 0 )
    6a92:	c1 f7       	brne	.-16     	; 0x6a84 <u8g_com_atmega_hw_spi_fn+0x70>
        }
      }
      break;
  }
  return 1;
}
    6a94:	81 e0       	ldi	r24, 0x01	; 1
    6a96:	df 91       	pop	r29
    6a98:	cf 91       	pop	r28
    6a9a:	1f 91       	pop	r17
    6a9c:	0f 91       	pop	r16
    6a9e:	08 95       	ret
    case U8G_COM_MSG_STOP:
      break;
    
    case U8G_COM_MSG_INIT:

      u8g_SetPIOutput(u8g, U8G_PI_CS);
    6aa0:	62 e0       	ldi	r22, 0x02	; 2
    6aa2:	0e 94 41 2d 	call	0x5a82	; 0x5a82 <u8g_SetPIOutput>
      u8g_SetPIOutput(u8g, U8G_PI_A0);
    6aa6:	61 e0       	ldi	r22, 0x01	; 1
    6aa8:	ce 01       	movw	r24, r28
    6aaa:	0e 94 41 2d 	call	0x5a82	; 0x5a82 <u8g_SetPIOutput>
      u8g_SetPIOutput(u8g, U8G_PI_RESET);
    6aae:	60 e0       	ldi	r22, 0x00	; 0
    6ab0:	ce 01       	movw	r24, r28
    6ab2:	0e 94 41 2d 	call	0x5a82	; 0x5a82 <u8g_SetPIOutput>
      
      U8G_ATOMIC_START();
    6ab6:	8f b7       	in	r24, 0x3f	; 63
    6ab8:	80 93 3b 03 	sts	0x033B, r24
    6abc:	f8 94       	cli
      
      DDRB |= _BV(3);          /* D0, MOSI */
    6abe:	23 9a       	sbi	0x04, 3	; 4
      DDRB |= _BV(5);          /* SCK */
    6ac0:	25 9a       	sbi	0x04, 5	; 4
      DDRB |= _BV(2);		/* slave select */
    6ac2:	22 9a       	sbi	0x04, 2	; 4
    
      PORTB &= ~_BV(3);        /* D0, MOSI = 0 */
    6ac4:	2b 98       	cbi	0x05, 3	; 5
      PORTB &= ~_BV(5);        /* SCK = 0 */
    6ac6:	2d 98       	cbi	0x05, 5	; 5
      
      U8G_ATOMIC_END();
    6ac8:	80 91 3b 03 	lds	r24, 0x033B
    6acc:	8f bf       	out	0x3f, r24	; 63
      
      u8g_SetPILevel(u8g, U8G_PI_CS, 1);
    6ace:	41 e0       	ldi	r20, 0x01	; 1
    6ad0:	62 e0       	ldi	r22, 0x02	; 2
    6ad2:	ce 01       	movw	r24, r28
    6ad4:	0e 94 6e 2d 	call	0x5adc	; 0x5adc <u8g_SetPILevel>
            0	0		fclk/4    x
            0	1		fclk/16
            1	0		fclk/64      
            1	1		fclk/128
      */
      SPCR = 0;
    6ad8:	1c bc       	out	0x2c, r1	; 44
      SPCR =  (1<<SPE) | (1<<MSTR)|(0<<SPR1)|(0<<SPR0)|(0<<CPOL)|(0<<CPHA);
    6ada:	80 e5       	ldi	r24, 0x50	; 80
    6adc:	8c bd       	out	0x2c, r24	; 44
        }
      }
      break;
  }
  return 1;
}
    6ade:	81 e0       	ldi	r24, 0x01	; 1
    6ae0:	df 91       	pop	r29
    6ae2:	cf 91       	pop	r28
    6ae4:	1f 91       	pop	r17
    6ae6:	0f 91       	pop	r16
    6ae8:	08 95       	ret
#endif

      break;
    
    case U8G_COM_MSG_ADDRESS:                     /* define cmd (arg_val = 0) or data mode (arg_val = 1) */
      u8g_SetPILevel(u8g, U8G_PI_A0, arg_val);
    6aea:	61 e0       	ldi	r22, 0x01	; 1
    6aec:	0e 94 6e 2d 	call	0x5adc	; 0x5adc <u8g_SetPILevel>
        }
      }
      break;
  }
  return 1;
}
    6af0:	81 e0       	ldi	r24, 0x01	; 1
    6af2:	df 91       	pop	r29
    6af4:	cf 91       	pop	r28
    6af6:	1f 91       	pop	r17
    6af8:	0f 91       	pop	r16
    6afa:	08 95       	ret
      }
      
      break;
      
    case U8G_COM_MSG_RESET:
      u8g_SetPILevel(u8g, U8G_PI_RESET, arg_val);
    6afc:	60 e0       	ldi	r22, 0x00	; 0
    6afe:	0e 94 6e 2d 	call	0x5adc	; 0x5adc <u8g_SetPILevel>
        }
      }
      break;
  }
  return 1;
}
    6b02:	81 e0       	ldi	r24, 0x01	; 1
    6b04:	df 91       	pop	r29
    6b06:	cf 91       	pop	r28
    6b08:	1f 91       	pop	r17
    6b0a:	0f 91       	pop	r16
    6b0c:	08 95       	ret
        /* disable */
        u8g_SetPILevel(u8g, U8G_PI_CS, 1);
      }
      else
      {
        PORTB &= ~_BV(5);        /* SCK = 0 */
    6b0e:	2d 98       	cbi	0x05, 5	; 5
        /* enable */
        u8g_SetPILevel(u8g, U8G_PI_CS, 0); /* CS = 0 (low active) */
    6b10:	40 e0       	ldi	r20, 0x00	; 0
    6b12:	62 e0       	ldi	r22, 0x02	; 2
    6b14:	0e 94 6e 2d 	call	0x5adc	; 0x5adc <u8g_SetPILevel>
    6b18:	a1 cf       	rjmp	.-190    	; 0x6a5c <u8g_com_atmega_hw_spi_fn+0x48>

00006b1a <u8g_page_First>:
  p->page = 0;
  u8g_page_First(p);
}

void u8g_page_First(u8g_page_t *p)
{
    6b1a:	fc 01       	movw	r30, r24
  p->page_y0 = 0;
    6b1c:	12 82       	std	Z+2, r1	; 0x02
  p->page_y1 = p->page_height;
  p->page_y1--;
    6b1e:	80 81       	ld	r24, Z
    6b20:	81 50       	subi	r24, 0x01	; 1
    6b22:	83 83       	std	Z+3, r24	; 0x03
  p->page = 0;
    6b24:	14 82       	std	Z+4, r1	; 0x04
    6b26:	08 95       	ret

00006b28 <u8g_page_Next>:
}

uint8_t u8g_page_Next(u8g_page_t * p)
{
    6b28:	fc 01       	movw	r30, r24
  register u8g_uint_t y1;
  p->page_y0 += p->page_height;
    6b2a:	20 81       	ld	r18, Z
    6b2c:	82 81       	ldd	r24, Z+2	; 0x02
    6b2e:	82 0f       	add	r24, r18
    6b30:	82 83       	std	Z+2, r24	; 0x02
  if ( p->page_y0 >= p->total_height )
    6b32:	91 81       	ldd	r25, Z+1	; 0x01
    6b34:	89 17       	cp	r24, r25
    6b36:	60 f4       	brcc	.+24     	; 0x6b50 <u8g_page_Next+0x28>
    return 0;
  p->page++;
    6b38:	84 81       	ldd	r24, Z+4	; 0x04
    6b3a:	8f 5f       	subi	r24, 0xFF	; 255
    6b3c:	84 83       	std	Z+4, r24	; 0x04
  y1 = p->page_y1;
    6b3e:	83 81       	ldd	r24, Z+3	; 0x03
  y1 += p->page_height;
    6b40:	82 0f       	add	r24, r18
  if ( y1 >= p->total_height )
    6b42:	89 17       	cp	r24, r25
    6b44:	10 f0       	brcs	.+4      	; 0x6b4a <u8g_page_Next+0x22>
  {
    y1 = p->total_height;
    y1--;
    6b46:	8f ef       	ldi	r24, 0xFF	; 255
    6b48:	89 0f       	add	r24, r25
  }
  p->page_y1 = y1;
    6b4a:	83 83       	std	Z+3, r24	; 0x03
  
  return 1;
    6b4c:	81 e0       	ldi	r24, 0x01	; 1
    6b4e:	08 95       	ret
uint8_t u8g_page_Next(u8g_page_t * p)
{
  register u8g_uint_t y1;
  p->page_y0 += p->page_height;
  if ( p->page_y0 >= p->total_height )
    return 0;
    6b50:	80 e0       	ldi	r24, 0x00	; 0
    y1--;
  }
  p->page_y1 = y1;
  
  return 1;
}
    6b52:	08 95       	ret

00006b54 <__divmodhi4>:
    6b54:	97 fb       	bst	r25, 7
    6b56:	07 2e       	mov	r0, r23
    6b58:	16 f4       	brtc	.+4      	; 0x6b5e <__divmodhi4+0xa>
    6b5a:	00 94       	com	r0
    6b5c:	07 d0       	rcall	.+14     	; 0x6b6c <__divmodhi4_neg1>
    6b5e:	77 fd       	sbrc	r23, 7
    6b60:	09 d0       	rcall	.+18     	; 0x6b74 <__divmodhi4_neg2>
    6b62:	0e 94 de 35 	call	0x6bbc	; 0x6bbc <__udivmodhi4>
    6b66:	07 fc       	sbrc	r0, 7
    6b68:	05 d0       	rcall	.+10     	; 0x6b74 <__divmodhi4_neg2>
    6b6a:	3e f4       	brtc	.+14     	; 0x6b7a <__divmodhi4_exit>

00006b6c <__divmodhi4_neg1>:
    6b6c:	90 95       	com	r25
    6b6e:	81 95       	neg	r24
    6b70:	9f 4f       	sbci	r25, 0xFF	; 255
    6b72:	08 95       	ret

00006b74 <__divmodhi4_neg2>:
    6b74:	70 95       	com	r23
    6b76:	61 95       	neg	r22
    6b78:	7f 4f       	sbci	r23, 0xFF	; 255

00006b7a <__divmodhi4_exit>:
    6b7a:	08 95       	ret

00006b7c <__tablejump2__>:
    6b7c:	ee 0f       	add	r30, r30
    6b7e:	ff 1f       	adc	r31, r31

00006b80 <__tablejump__>:
    6b80:	05 90       	lpm	r0, Z+
    6b82:	f4 91       	lpm	r31, Z
    6b84:	e0 2d       	mov	r30, r0
    6b86:	09 94       	ijmp

00006b88 <__umulhisi3>:
    6b88:	a2 9f       	mul	r26, r18
    6b8a:	b0 01       	movw	r22, r0
    6b8c:	b3 9f       	mul	r27, r19
    6b8e:	c0 01       	movw	r24, r0
    6b90:	a3 9f       	mul	r26, r19
    6b92:	70 0d       	add	r23, r0
    6b94:	81 1d       	adc	r24, r1
    6b96:	11 24       	eor	r1, r1
    6b98:	91 1d       	adc	r25, r1
    6b9a:	b2 9f       	mul	r27, r18
    6b9c:	70 0d       	add	r23, r0
    6b9e:	81 1d       	adc	r24, r1
    6ba0:	11 24       	eor	r1, r1
    6ba2:	91 1d       	adc	r25, r1
    6ba4:	08 95       	ret

00006ba6 <__muluhisi3>:
    6ba6:	0e 94 c4 35 	call	0x6b88	; 0x6b88 <__umulhisi3>
    6baa:	a5 9f       	mul	r26, r21
    6bac:	90 0d       	add	r25, r0
    6bae:	b4 9f       	mul	r27, r20
    6bb0:	90 0d       	add	r25, r0
    6bb2:	a4 9f       	mul	r26, r20
    6bb4:	80 0d       	add	r24, r0
    6bb6:	91 1d       	adc	r25, r1
    6bb8:	11 24       	eor	r1, r1
    6bba:	08 95       	ret

00006bbc <__udivmodhi4>:
    6bbc:	aa 1b       	sub	r26, r26
    6bbe:	bb 1b       	sub	r27, r27
    6bc0:	51 e1       	ldi	r21, 0x11	; 17
    6bc2:	07 c0       	rjmp	.+14     	; 0x6bd2 <__udivmodhi4_ep>

00006bc4 <__udivmodhi4_loop>:
    6bc4:	aa 1f       	adc	r26, r26
    6bc6:	bb 1f       	adc	r27, r27
    6bc8:	a6 17       	cp	r26, r22
    6bca:	b7 07       	cpc	r27, r23
    6bcc:	10 f0       	brcs	.+4      	; 0x6bd2 <__udivmodhi4_ep>
    6bce:	a6 1b       	sub	r26, r22
    6bd0:	b7 0b       	sbc	r27, r23

00006bd2 <__udivmodhi4_ep>:
    6bd2:	88 1f       	adc	r24, r24
    6bd4:	99 1f       	adc	r25, r25
    6bd6:	5a 95       	dec	r21
    6bd8:	a9 f7       	brne	.-22     	; 0x6bc4 <__udivmodhi4_loop>
    6bda:	80 95       	com	r24
    6bdc:	90 95       	com	r25
    6bde:	bc 01       	movw	r22, r24
    6be0:	cd 01       	movw	r24, r26
    6be2:	08 95       	ret

00006be4 <memcpy_P>:
    6be4:	fb 01       	movw	r30, r22
    6be6:	dc 01       	movw	r26, r24
    6be8:	02 c0       	rjmp	.+4      	; 0x6bee <memcpy_P+0xa>
    6bea:	05 90       	lpm	r0, Z+
    6bec:	0d 92       	st	X+, r0
    6bee:	41 50       	subi	r20, 0x01	; 1
    6bf0:	50 40       	sbci	r21, 0x00	; 0
    6bf2:	d8 f7       	brcc	.-10     	; 0x6bea <memcpy_P+0x6>
    6bf4:	08 95       	ret

00006bf6 <memset>:
    6bf6:	dc 01       	movw	r26, r24
    6bf8:	01 c0       	rjmp	.+2      	; 0x6bfc <memset+0x6>
    6bfa:	6d 93       	st	X+, r22
    6bfc:	41 50       	subi	r20, 0x01	; 1
    6bfe:	50 40       	sbci	r21, 0x00	; 0
    6c00:	e0 f7       	brcc	.-8      	; 0x6bfa <memset+0x4>
    6c02:	08 95       	ret

00006c04 <__eerd_word_m328p>:
    6c04:	a8 e1       	ldi	r26, 0x18	; 24
    6c06:	b0 e0       	ldi	r27, 0x00	; 0
    6c08:	42 e0       	ldi	r20, 0x02	; 2
    6c0a:	50 e0       	ldi	r21, 0x00	; 0
    6c0c:	0c 94 10 36 	jmp	0x6c20	; 0x6c20 <__eerd_blraw_m328p>

00006c10 <__eeupd_word_m328p>:
    6c10:	01 96       	adiw	r24, 0x01	; 1
    6c12:	27 2f       	mov	r18, r23
    6c14:	0e 94 1f 36 	call	0x6c3e	; 0x6c3e <__eeupd_r18_m328p>
    6c18:	0c 94 1e 36 	jmp	0x6c3c	; 0x6c3c <__eeupd_byte_m328p>

00006c1c <__eerd_block_m328p>:
    6c1c:	dc 01       	movw	r26, r24
    6c1e:	cb 01       	movw	r24, r22

00006c20 <__eerd_blraw_m328p>:
    6c20:	fc 01       	movw	r30, r24
    6c22:	f9 99       	sbic	0x1f, 1	; 31
    6c24:	fe cf       	rjmp	.-4      	; 0x6c22 <__eerd_blraw_m328p+0x2>
    6c26:	06 c0       	rjmp	.+12     	; 0x6c34 <__eerd_blraw_m328p+0x14>
    6c28:	f2 bd       	out	0x22, r31	; 34
    6c2a:	e1 bd       	out	0x21, r30	; 33
    6c2c:	f8 9a       	sbi	0x1f, 0	; 31
    6c2e:	31 96       	adiw	r30, 0x01	; 1
    6c30:	00 b4       	in	r0, 0x20	; 32
    6c32:	0d 92       	st	X+, r0
    6c34:	41 50       	subi	r20, 0x01	; 1
    6c36:	50 40       	sbci	r21, 0x00	; 0
    6c38:	b8 f7       	brcc	.-18     	; 0x6c28 <__eerd_blraw_m328p+0x8>
    6c3a:	08 95       	ret

00006c3c <__eeupd_byte_m328p>:
    6c3c:	26 2f       	mov	r18, r22

00006c3e <__eeupd_r18_m328p>:
    6c3e:	f9 99       	sbic	0x1f, 1	; 31
    6c40:	fe cf       	rjmp	.-4      	; 0x6c3e <__eeupd_r18_m328p>
    6c42:	92 bd       	out	0x22, r25	; 34
    6c44:	81 bd       	out	0x21, r24	; 33
    6c46:	f8 9a       	sbi	0x1f, 0	; 31
    6c48:	01 97       	sbiw	r24, 0x01	; 1
    6c4a:	00 b4       	in	r0, 0x20	; 32
    6c4c:	02 16       	cp	r0, r18
    6c4e:	39 f0       	breq	.+14     	; 0x6c5e <__eeupd_r18_m328p+0x20>
    6c50:	1f ba       	out	0x1f, r1	; 31
    6c52:	20 bd       	out	0x20, r18	; 32
    6c54:	0f b6       	in	r0, 0x3f	; 63
    6c56:	f8 94       	cli
    6c58:	fa 9a       	sbi	0x1f, 2	; 31
    6c5a:	f9 9a       	sbi	0x1f, 1	; 31
    6c5c:	0f be       	out	0x3f, r0	; 63
    6c5e:	08 95       	ret

00006c60 <_exit>:
    6c60:	f8 94       	cli

00006c62 <__stop_program>:
    6c62:	ff cf       	rjmp	.-2      	; 0x6c62 <__stop_program>
